((dp0
S'AA'
p1
(dp2
S'GT'
p3
F0.32
sS'TT'
p4
F-1.0
sS'AT'
p5
F1.36
sS'TG'
p6
F0.02
sS'TA'
p7
F1.07
sS'TC'
p8
F0.79
sS'CT'
p9
F1.015
ssS'AC'
p10
(dp11
S'AG'
p12
F0.19
sS'TT'
p13
F0.67
sS'CG'
p14
F0.235
sS'GG'
p15
F-0.66
sS'TG'
p16
F-2.1
sS'TC'
p17
F1.64
sS'TA'
p18
F0.735
ssS'GT'
p19
(dp20
S'AA'
p21
F-0.08
sS'CC'
p22
F0.49
sS'CA'
p23
F-1.1
sS'CG'
p24
F-1.55
sS'GA'
p25
F0.97
sS'TG'
p26
F0.81
sS'TA'
p27
F-0.645
sS'CT'
p28
F0.18
ssS'AG'
p29
(dp30
S'AC'
p31
F0.21
sS'CC'
p32
F0.395
sS'TT'
p33
F0.08
sS'GC'
p34
F-0.345
sS'TG'
p35
F0.31
sS'TC'
p36
F-1.8
sS'TA'
p37
F-0.14
ssS'CC'
p38
(dp39
S'GT'
p40
F0.31
sS'AG'
p41
F0.405
sS'CG'
p42
F0.73
sS'GG'
p43
F-2.1
sS'GC'
p44
F1.04
sS'GA'
p45
F0.395
sS'TG'
p46
F0.49
ssS'CA'
p47
(dp48
S'GT'
p49
F-0.9
sS'TT'
p50
F0.725
sS'GG'
p51
F-0.385
sS'GC'
p52
F0.375
sS'AT'
p53
F0.81
sS'GA'
p54
F0.9
sS'CT'
p55
F1.7
ssS'CG'
p56
(dp57
S'AC'
p58
F0.375
sS'GT'
p59
F-0.94
sS'CC'
p60
F0.46
sS'GG'
p61
F0.14
sS'GC'
p62
F-1.7
sS'GA'
p63
F-0.445
sS'TC'
p64
F0.2
ssS'TT'
p65
(dp66
S'AA'
p67
F-0.2
sS'AC'
p68
F0.725
sS'AG'
p69
F-0.465
sS'CA'
p70
F0.67
sS'GG'
p71
F0.12
sS'AT'
p72
F1.07
sS'GA'
p73
F0.08
sS'TA'
p74
F1.03
ssS'GG'
p75
(dp76
S'AC'
p77
F-0.485
sS'CC'
p78
F-2.9
sS'CA'
p79
F-0.76
sS'CG'
p80
F-0.58
sS'TC'
p81
F-1.215
sS'GC'
p82
F-0.33
sS'TT'
p83
F0.12
sS'CT'
p84
F-0.725
ssS'GC'
p85
(dp86
S'AG'
p87
F-0.625
sS'CC'
p88
F0.96
sS'CA'
p89
F0.235
sS'CG'
p90
F-2.7
sS'GG'
p91
F-0.83
sS'TG'
p92
F-1.55
sS'CT'
p93
F0.31
ssS'AT'
p94
(dp95
S'AA'
p96
F1.85
sS'TT'
p97
F0.63
sS'TC'
p98
F0.715
sS'GA'
p99
F-0.04
sS'TG'
p100
F-0.645
sS'CA'
p101
F0.735
sS'TA'
p102
F-0.9
ssS'GA'
p103
(dp104
S'GT'
p105
F0.5
sS'CC'
p106
F0.405
sS'CA'
p107
F0.51
sS'CG'
p108
F-0.525
sS'AT'
p109
F0.06
sS'TT'
p110
F-0.465
sS'CT'
p111
F-1.3
ssS'TG'
p112
(dp113
S'AA'
p114
F0.22
sS'AC'
p115
F-1.6
sS'GT'
p116
F0.41
sS'AG'
p117
F0.44
sS'CC'
p118
F0.31
sS'GC'
p119
F-0.94
sS'AT'
p120
F-0.285
sS'TC'
p121
F0.14
ssS'TA'
p122
(dp123
S'AA'
p124
F1.13
sS'AC'
p125
F0.81
sS'GT'
p126
F-0.285
sS'AG'
p127
F0.16
sS'TT'
p128
F1.21
sS'AT'
p129
F-0.6
sS'CT'
p130
F0.485
ssS'TC'
p131
(dp132
S'AA'
p133
F1.015
sS'AC'
p134
F1.15
sS'AG'
p135
F-1.5
sS'CG'
p136
F0.31
sS'GG'
p137
F-0.725
sS'AT'
p138
F0.835
sS'TG'
p139
F-0.02
ssS'CT'
p140
(dp141
S'AA'
p142
F0.79
sS'GT'
p143
F0.49
sS'CA'
p144
F1.88
sS'GG'
p145
F-1.215
sS'GC'
p146
F0.2
sS'GA'
p147
F-0.9
sS'TA'
p148
F0.715
ss(dp149
S'ACC'
p150
(dp151
S'TCG'
p152
F2.37
sS'TAG'
p153
F1.3900000000000001
sS'TTG'
p154
F1.4100000000000001
ssS'ATG'
p155
(dp156
S'TTC'
p157
F0.77
sS'TGC'
p158
F-1.585
sS'TCC'
p159
F1.275
ssS'ACA'
p160
(dp161
S'TAT'
p162
F1.795
sS'TCT'
p163
F3.34
sS'TTT'
p164
F1.645
ssS'AAA'
p165
(dp166
S'TAT'
p167
F2.43
sS'TCT'
p168
F2.0549999999999997
sS'TGT'
p169
F1.39
ssS'ATC'
p170
(dp171
S'TCG'
p172
F1.275
sS'TTG'
p173
F0.61
sS'TGG'
p174
F-1.37
ssS'AAC'
p175
(dp176
S'TCG'
p177
F1.275
sS'TAG'
p178
F1.26
sS'TGG'
p179
F0.41
ssS'ATA'
p180
(dp181
S'TCT'
p182
F1.7999999999999998
sS'TGT'
p183
F-0.9300000000000002
sS'TTT'
p184
F1.8399999999999999
ssS'AGG'
p185
(dp186
S'TTC'
p187
F-1.135
sS'TGC'
p188
F-0.020000000000000018
sS'TAC'
p189
F0.625
ssS'CCT'
p190
(dp191
S'GCA'
p192
F2.92
sS'GTA'
p193
F1.275
sS'GAA'
p194
F1.435
ssS'CTC'
p195
(dp196
S'GGG'
p197
F-1.94
sS'GCG'
p198
F0.51
sS'GTG'
p199
F0.47
ssS'AGC'
p200
(dp201
S'TAG'
p202
F0.485
sS'TTG'
p203
F-1.4699999999999998
sS'TGG'
p204
F-0.52
ssS'AAG'
p205
(dp206
S'TGC'
p207
F0.725
sS'TCC'
p208
F1.435
sS'TAC'
p209
F1.28
ssS'AGA'
p210
(dp211
S'TAT'
p212
F1.17
sS'TGT'
p213
F0.81
sS'TTT'
p214
F-0.385
ssS'CAT'
p215
(dp216
S'GCA'
p217
F1.3599999999999999
sS'GGA'
p218
F0.625
sS'GAA'
p219
F2.75
ssS'AAT'
p220
(dp221
S'TGA'
p222
F1.03
sS'TAA'
p223
F2.92
sS'TCA'
p224
F1.775
ssS'ATT'
p225
(dp226
S'TTA'
p227
F1.6600000000000001
sS'TGA'
p228
F-0.5650000000000001
sS'TCA'
p229
F1.635
ssS'CTG'
p230
(dp231
S'GCC'
p232
F0.76
sS'GTC'
p233
F0.63
sS'GGC'
p234
F-2.155
ssS'CTA'
p235
(dp236
S'GGT'
p237
F-1.5
sS'GTT'
p238
F1.7
sS'GCT'
p239
F1.2850000000000001
ssS'ACT'
p240
(dp241
S'TTA'
p242
F1.635
sS'TAA'
p243
F1.775
sS'TCA'
p244
F3.5199999999999996
ssS'CAC'
p245
(dp246
S'GAG'
p247
F1.09
sS'GGG'
p248
F0.0050000000000000044
sS'GCG'
p249
F0.41
ssS'ACG'
p250
(dp251
S'TTC'
p252
F1.12
sS'TCC'
p253
F2.1
sS'TAC'
p254
F1.3599999999999999
ssS'CAA'
p255
(dp256
S'GGT'
p257
F0.985
sS'GAT'
p258
F2.2600000000000002
sS'GCT'
p259
F1.6400000000000001
ssS'AGT'
p260
(dp261
S'TTA'
p262
F-0.5650000000000001
sS'TGA'
p263
F1.28
sS'TAA'
p264
F1.03
ssS'CCA'
p265
(dp266
S'GAT'
p267
F1.455
sS'GTT'
p268
F1.2850000000000001
sS'GCT'
p269
F2.74
ssS'CCG'
p270
(dp271
S'GCC'
p272
F1.5
sS'GTC'
p273
F0.76
sS'GAC'
p274
F1.02
ssS'CCC'
p275
(dp276
S'GAG'
p277
F0.9500000000000001
sS'GCG'
p278
F1.77
sS'GTG'
p279
F1.1
ssS'TAG'
p280
(dp281
S'ACC'
p282
F1.455
sS'AGC'
p283
F0.865
sS'AAC'
p284
F1.3399999999999999
ssS'TAT'
p285
(dp286
S'ACA'
p287
F1.795
sS'AAA'
p288
F2.98
sS'AGA'
p289
F1.17
ssS'GGT'
p290
(dp291
S'CGA'
p292
F0.39
sS'CAA'
p293
F0.41
sS'CTA'
p294
F-1.37
ssS'TGT'
p295
(dp296
S'AAA'
p297
F1.39
sS'AGA'
p298
F1.41
sS'ATA'
p299
F-0.9300000000000002
ssS'CGA'
p300
(dp301
S'GGT'
p302
F0.64
sS'GAT'
p303
F0.865
sS'GTT'
p304
F-1.4049999999999998
ssS'CAG'
p305
(dp306
S'GCC'
p307
F1.02
sS'GAC'
p308
F1.11
sS'GGC'
p309
F0.32
ssS'CGC'
p310
(dp311
S'GAG'
p312
F-0.12000000000000001
sS'GGG'
p313
F-0.69
sS'GTG'
p314
F-2.49
ssS'GAT'
p315
(dp316
S'CGA'
p317
F0.485
sS'CAA'
p318
F2.3600000000000003
sS'CCA'
p319
F1.3900000000000001
ssS'CGG'
p320
(dp321
S'GTC'
p322
F-2.155
sS'GAC'
p323
F0.32
sS'GGC'
p324
F-0.19
ssS'CTT'
p325
(dp326
S'GCA'
p327
F1.12
sS'GTA'
p328
F1.52
sS'GGA'
p329
F-1.135
ssS'TGC'
p330
(dp331
S'AGG'
p332
F-0.38999999999999996
sS'ATG'
p333
F-1.835
sS'AAG'
p334
F0.845
ssS'GGG'
p335
(dp336
S'CAC'
p337
F0.0050000000000000044
sS'CGC'
p338
F-0.9099999999999999
sS'CTC'
p339
F-1.94
ssS'TGA'
p340
(dp341
S'AAT'
p342
F1.5299999999999998
sS'ATT'
p343
F-0.75
sS'AGT'
p344
F0.94
ssS'GGA'
p345
(dp346
S'CTT'
p347
F-1.19
sS'CGT'
p348
F-0.07999999999999996
sS'CAT'
p349
F0.5499999999999999
ssS'TAA'
p350
(dp351
S'AAT'
p352
F2.49
sS'AGT'
p353
F1.5299999999999998
sS'ACT'
p354
F2.075
ssS'GGC'
p355
(dp356
S'CTG'
p357
F-2.275
sS'CAG'
p358
F-0.135
sS'CGG'
p359
F-1.41
ssS'TAC'
p360
(dp361
S'AGG'
p362
F0.5499999999999999
sS'AAG'
p363
F1.3199999999999998
sS'ACG'
p364
F1.295
ssS'GAG'
p365
(dp366
S'CAC'
p367
F0.72
sS'CGC'
p368
F-0.12000000000000001
sS'CCC'
p369
F0.9500000000000001
ssS'TCG'
p370
(dp371
S'ACC'
p372
F1.6099999999999999
sS'ATC'
p373
F1.2850000000000001
sS'AAC'
p374
F1.6400000000000001
ssS'TTA'
p375
(dp376
S'ATT'
p377
F2.2800000000000002
sS'AGT'
p378
F-0.75
sS'ACT'
p379
F1.81
ssS'TTT'
p380
(dp381
S'ACA'
p382
F1.645
sS'AGA'
p383
F-0.385
sS'ATA'
p384
F2.1
ssS'GAC'
p385
(dp386
S'CCG'
p387
F0.89
sS'CAG'
p388
F0.7
sS'CGG'
p389
F-0.135
ssS'CGT'
p390
(dp391
S'GTA'
p392
F-1.585
sS'GGA'
p393
F1.1099999999999999
sS'GAA'
p394
F0.725
ssS'GAA'
p395
(dp396
S'CCT'
p397
F1.67
sS'CGT'
p398
F0.845
sS'CAT'
p399
F1.87
ssS'TCA'
p400
(dp401
S'AAT'
p402
F2.075
sS'ATT'
p403
F1.81
sS'ACT'
p404
F2.8499999999999996
ssS'GCA'
p405
(dp406
S'CTT'
p407
F1.2850000000000001
sS'CCT'
p408
F2.66
sS'CAT'
p409
F1.295
ssS'GTA'
p410
(dp411
S'CTT'
p412
F1.39
sS'CCT'
p413
F1.575
sS'CGT'
p414
F-1.835
ssS'GCC'
p415
(dp416
S'CCG'
p417
F1.69
sS'CTG'
p418
F1.05
sS'CAG'
p419
F0.89
ssS'GTC'
p420
(dp421
S'CCG'
p422
F1.05
sS'CTG'
p423
F0.16
sS'CGG'
p424
F-2.275
ssS'GCG'
p425
(dp426
S'CAC'
p427
F0.41
sS'CCC'
p428
F1.42
sS'CTC'
p429
F0.51
ssS'GTG'
p430
(dp431
S'CGC'
p432
F-2.49
sS'CCC'
p433
F1.1
sS'CTC'
p434
F0.32
ssS'TTC'
p435
(dp436
S'AGG'
p437
F-1.19
sS'ATG'
p438
F1.05
sS'ACG'
p439
F1.2850000000000001
ssS'GTT'
p440
(dp441
S'CGA'
p442
F-1.4699999999999998
sS'CCA'
p443
F1.4100000000000001
sS'CTA'
p444
F1.21
ssS'GCT'
p445
(dp446
S'CAA'
p447
F1.275
sS'CCA'
p448
F2.84
sS'CTA'
p449
F1.275
ssS'TTG'
p450
(dp451
S'ACC'
p452
F1.2850000000000001
sS'AGC'
p453
F-1.4049999999999998
sS'ATC'
p454
F1.21
ssS'TCC'
p455
(dp456
S'ATG'
p457
F1.575
sS'AAG'
p458
F1.67
sS'ACG'
p459
F1.88
ssS'TGG'
p460
(dp461
S'AGC'
p462
F0.10999999999999999
sS'ATC'
p463
F-1.5
sS'AAC'
p464
F0.985
ssS'TCT'
p465
(dp466
S'ACA'
p467
F3.03
sS'AAA'
p468
F2.0549999999999997
sS'ATA'
p469
F1.7999999999999998
ss(dp470
S'GTAC'
p471
(dp472
S'CTAG'
p473
F3.37
sS'CGAG'
p474
F1.1350000000000002
sS'CGGG'
p475
F0.5900000000000002
sS'CCGG'
p476
F1.9300000000000002
sS'CTGG'
p477
F1.0150000000000001
sS'CCCG'
p478
F3.025
sS'CGCG'
p479
F1.085
sS'CCAG'
p480
F2.975
sS'CTCG'
p481
F2.36
ssS'CGAG'
p482
(dp483
S'GTAC'
p484
F1.375
sS'GGAC'
p485
F3.35
sS'GTCC'
p486
F1.855
sS'GTGC'
p487
F0.8150000000000002
sS'GAAC'
p488
F2.1700000000000004
sS'GGGC'
p489
F1.8
sS'GAGC'
p490
F1.56
sS'GGCC'
p491
F1.9400000000000002
sS'GACC'
p492
F2.35
ssS'GTAA'
p493
(dp494
S'CTGT'
p495
F2.445
sS'CCCT'
p496
F3.6550000000000002
sS'CGCT'
p497
F1.865
sS'CTCT'
p498
F3.04
sS'CCAT'
p499
F3.585
sS'CGAT'
p500
F1.5450000000000002
sS'CTAT'
p501
F4.54
sS'CGGT'
p502
F1.57
sS'CCGT'
p503
F3.3600000000000003
ssS'CGAA'
p504
(dp505
S'GAGT'
p506
F2.225
sS'GGGT'
p507
F2.4650000000000003
sS'GAAT'
p508
F2.7
sS'GACT'
p509
F2.82
sS'GGCT'
p510
F2.41
sS'GTCT'
p511
F2.475
sS'GGAT'
p512
F4.5
sS'GTAT'
p513
F2.1550000000000002
sS'GTGT'
p514
F2.18
ssS'AAAT'
p515
(dp516
S'TAAA'
p517
F5.92
sS'TCGA'
p518
F2.95
sS'TCAA'
p519
F3.8449999999999998
sS'TGCA'
p520
F3.255
sS'TAGA'
p521
F2.865
sS'TGAA'
p522
F3.275
sS'TACA'
p523
F3.74
sS'TGGA'
p524
F2.38
sS'TCCA'
p525
F3.825
ssS'CGAC'
p526
(dp527
S'GTCG'
p528
F1.695
sS'GTAG'
p529
F1.895
sS'GGAG'
p530
F3.33
sS'GTGG'
p531
F1.2000000000000002
sS'GGGG'
p532
F1.0350000000000001
sS'GAGG'
p533
F0.745
sS'GAAG'
p534
F1.8399999999999999
sS'GGCG'
p535
F1.78
sS'GACG'
p536
F1.89
ssS'GTAT'
p537
(dp538
S'CGGA'
p539
F1.2100000000000002
sS'CGAA'
p540
F1.5050000000000001
sS'CTAA'
p541
F5.03
sS'CCGA'
p542
F2.9
sS'CCCA'
p543
F3.4749999999999996
sS'CTGA'
p544
F1.985
sS'CCAA'
p545
F3.545
sS'CTCA'
p546
F2.8600000000000003
sS'CGCA'
p547
F1.5850000000000002
ssS'AGTG'
p548
(dp549
S'TTTC'
p550
F2.37
sS'TGGC'
p551
F0.44500000000000006
sS'TGTC'
p552
F3.45
sS'TATC'
p553
F1.75
sS'TGCC'
p554
F2.195
sS'TTCC'
p555
F2.79
sS'TAGC'
p556
F1.8200000000000003
sS'TTGC'
p557
F1.1749999999999998
sS'TACC'
p558
F2.8200000000000003
ssS'AGTA'
p559
(dp560
S'TAGT'
p561
F2.4749999999999996
sS'TTCT'
p562
F3.315
sS'TGCT'
p563
F2.5700000000000003
sS'TACT'
p564
F3.195
sS'TTGT'
p565
F1.83
sS'TGGT'
p566
F1.1
sS'TTTT'
p567
F3.02
sS'TATT'
p568
F2.5
sS'TGTT'
p569
F4.52
ssS'AGTC'
p570
(dp571
S'TGGG'
p572
F0.6600000000000001
sS'TTTG'
p573
F2.855
sS'TATG'
p574
F1.985
sS'TGTG'
p575
F3.29
sS'TTCG'
p576
F2.79
sS'TAGG'
p577
F2.035
sS'TGCG'
p578
F2.145
sS'TTGG'
p579
F1.3899999999999997
sS'TACG'
p580
F2.77
ssS'AAAA'
p581
(dp582
S'TAGT'
p583
F3.325
sS'TGAT'
p584
F3.315
sS'TCAT'
p585
F3.885
sS'TGCT'
p586
F3.435
sS'TCCT'
p587
F4.005000000000001
sS'TACT'
p588
F3.92
sS'TGGT'
p589
F2.8400000000000003
sS'TAAT'
p590
F5.43
sS'TCGT'
p591
F3.41
ssS'CGAT'
p592
(dp593
S'GGAA'
p594
F4.99
sS'GTAA'
p595
F2.115
sS'GTCA'
p596
F2.1950000000000003
sS'GTGA'
p597
F1.8200000000000003
sS'GAAA'
p598
F2.66
sS'GAGA'
p599
F1.765
sS'GGGA'
p600
F2.005
sS'GACA'
p601
F2.64
sS'GGCA'
p602
F2.23
ssS'AAAC'
p603
(dp604
S'TAAG'
p605
F4.26
sS'TGGG'
p606
F1.4100000000000001
sS'TCGG'
p607
F1.98
sS'TAGG'
p608
F1.895
sS'TGCG'
p609
F2.755
sS'TCAG'
p610
F3.325
sS'TCCG'
p611
F3.325
sS'TGAG'
p612
F2.755
sS'TACG'
p613
F3.29
ssS'AAAG'
p614
(dp615
S'TAAC'
p616
F4.28
sS'TCGC'
p617
F2.745
sS'TGAC'
p618
F2.785
sS'TGCC'
p619
F2.965
sS'TCAC'
p620
F3.355
sS'TAGC'
p621
F2.66
sS'TACC'
p622
F3.45
sS'TCCC'
p623
F3.5349999999999997
sS'TGGC'
p624
F2.175
ssS'GGTT'
p625
(dp626
S'CATA'
p627
F1.385
sS'CGGA'
p628
F0.6250000000000001
sS'CTTA'
p629
F2.02
sS'CACA'
p630
F2.1100000000000003
sS'CTGA'
p631
F1.3899999999999997
sS'CAGA'
p632
F2.2199999999999998
sS'CTCA'
p633
F2.345
sS'CGCA'
p634
F1.7149999999999999
sS'CGTA'
p635
F3.45
ssS'AGTT'
p636
(dp637
S'TTTA'
p638
F2.825
sS'TGGA'
p639
F1.4649999999999999
sS'TGTA'
p640
F4.34
sS'TATA'
p641
F2.3550000000000004
sS'TGCA'
p642
F2.455
sS'TTCA'
p643
F3.15
sS'TAGA'
p644
F2.84
sS'TTGA'
p645
F2.195
sS'TACA'
p646
F3.08
ssS'GTAG'
p647
(dp648
S'CGGC'
p649
F0.9050000000000001
sS'CTAC'
p650
F3.39
sS'CGAC'
p651
F1.5650000000000002
sS'CCGC'
p652
F2.6950000000000003
sS'CCCC'
p653
F3.185
sS'CTGC'
p654
F2.5300000000000002
sS'CCAC'
p655
F3.0549999999999997
sS'CTCC'
p656
F2.32
sS'CGCC'
p657
F1.245
ssS'CCGT'
p658
(dp659
S'GTTA'
p660
F2.065
sS'GTAA'
p661
F3.2300000000000004
sS'GCTA'
p662
F2.355
sS'GTGA'
p663
F2.195
sS'GCGA'
p664
F5.01
sS'GCAA'
p665
F3.37
sS'GAAA'
p666
F2.965
sS'GAGA'
p667
F2.23
sS'GATA'
p668
F2.15
ssS'GAAT'
p669
(dp670
S'CGGA'
p671
F1.435
sS'CGAA'
p672
F2.33
sS'CCGA'
p673
F2.5149999999999997
sS'CCAA'
p674
F3.4099999999999997
sS'CCCA'
p675
F3.3899999999999997
sS'CACA'
p676
F3.2199999999999998
sS'CAAA'
p677
F5.36
sS'CAGA'
p678
F2.345
sS'CGCA'
p679
F2.31
ssS'TGCG'
p680
(dp681
S'AGAC'
p682
F2.795
sS'AACC'
p683
F3.42
sS'AGCC'
p684
F3.9
sS'ATAC'
p685
F2.14
sS'AGTC'
p686
F2.47
sS'AATC'
p687
F3.17
sS'AAAC'
p688
F3.195
sS'ATTC'
p689
F2.215
sS'ATCC'
p690
F2.4650000000000003
ssS'TTAC'
p691
(dp692
S'ACAG'
p693
F3.3100000000000005
sS'AGGG'
p694
F1.6749999999999998
sS'AGAG'
p695
F2.22
sS'ATGG'
p696
F1.5300000000000002
sS'ACCG'
p697
F3.3600000000000003
sS'AGCG'
p698
F2.17
sS'ATAG'
p699
F4.26
sS'ATCG'
p700
F2.875
sS'ACGG'
p701
F2.265
ssS'TTAA'
p702
(dp703
S'ATCT'
p704
F3.555
sS'ACGT'
p705
F3.695
sS'AGGT'
p706
F2.655
sS'ACAT'
p707
F3.92
sS'ATGT'
p708
F2.96
sS'AGAT'
p709
F2.63
sS'ACCT'
p710
F3.9899999999999998
sS'ATAT'
p711
F5.43
sS'AGCT'
p712
F2.95
ssS'TATT'
p713
(dp714
S'AGGA'
p715
F3.04
sS'AAGA'
p716
F3.175
sS'AGCA'
p717
F3.43
sS'AACA'
p718
F3.7649999999999997
sS'ACCA'
p719
F3.88
sS'AGTA'
p720
F2.705
sS'ACGA'
p721
F3.29
sS'AATA'
p722
F5.16
sS'ACTA'
p723
F3.455
ssS'GAAC'
p724
(dp725
S'CGAG'
p726
F1.81
sS'CGGG'
p727
F0.4650000000000001
sS'CAAG'
p728
F3.7
sS'CCGG'
p729
F1.545
sS'CACG'
p730
F2.72
sS'CCCG'
p731
F2.89
sS'CAGG'
p732
F1.375
sS'CGCG'
p733
F1.86
sS'CCAG'
p734
F2.89
ssS'CACT'
p735
(dp736
S'GGAA'
p737
F2.705
sS'GGTA'
p738
F2.88
sS'GCCA'
p739
F3.94
sS'GCTA'
p740
F3.64
sS'GCAA'
p741
F3.7150000000000003
sS'GAAA'
p742
F3.355
sS'GACA'
p743
F5.779999999999999
sS'GGCA'
p744
F3.1799999999999997
sS'GATA'
p745
F3.28
ssS'GAAG'
p746
(dp747
S'CGGC'
p748
F1.48
sS'CGAC'
p749
F2.0900000000000003
sS'CAAC'
p750
F3.7199999999999998
sS'CCGC'
p751
F2.6100000000000003
sS'CCCC'
p752
F3.1500000000000004
sS'CACC'
p753
F2.93
sS'CAGC'
p754
F1.8399999999999999
sS'CGCC'
p755
F2.4200000000000004
sS'CCAC'
p756
F2.92
ssS'GGAC'
p757
(dp758
S'CTAG'
p759
F2.11
sS'CGAG'
p760
F2.61
sS'CGGG'
p761
F0.5349999999999999
sS'CAAG'
p762
F1.375
sS'CACG'
p763
F1.375
sS'CTGG'
p764
F1.415
sS'CGCG'
p765
F1.28
sS'CAGG'
p766
F-0.020000000000000018
sS'CTCG'
p767
F1.9100000000000001
ssS'AACG'
p768
(dp769
S'TAAC'
p770
F3.6799999999999997
sS'TGTC'
p771
F3.12
sS'TATC'
p772
F3.3550000000000004
sS'TGCC'
p773
F3.37
sS'TCAC'
p774
F3.7150000000000003
sS'TGAC'
p775
F3.145
sS'TACC'
p776
F4.53
sS'TCTC'
p777
F3.3899999999999997
sS'TCCC'
p778
F3.6399999999999997
ssS'GCTC'
p779
(dp780
S'CATG'
p781
F2.36
sS'CCGG'
p782
F2.07
sS'CTTG'
p783
F2.485
sS'CACG'
p784
F2.8449999999999998
sS'CTGG'
p785
F1.9849999999999999
sS'CCCG'
p786
F3.005
sS'CCTG'
p787
F3.94
sS'CAGG'
p788
F1.9100000000000001
sS'CTCG'
p789
F2.9699999999999998
ssS'GCTA'
p790
(dp791
S'CTGT'
p792
F2.4250000000000003
sS'CACT'
p793
F3.3200000000000003
sS'CCCT'
p794
F3.4800000000000004
sS'CTCT'
p795
F3.3949999999999996
sS'CAGT'
p796
F2.35
sS'CCTT'
p797
F5.17
sS'CATT'
p798
F2.875
sS'CTTT'
p799
F3.0
sS'CCGT'
p800
F2.5100000000000002
ssS'ATAA'
p801
(dp802
S'TGAT'
p803
F2.45
sS'TTCT'
p804
F3.41
sS'TCAT'
p805
F3.8099999999999996
sS'TGCT'
p806
F2.77
sS'TCCT'
p807
F3.88
sS'TTGT'
p808
F2.815
sS'TGGT'
p809
F2.475
sS'TTAT'
p810
F4.99
sS'TCGT'
p811
F3.585
ssS'ATAC'
p812
(dp813
S'TGGG'
p814
F1.4949999999999999
sS'TTAG'
p815
F3.8200000000000003
sS'TCGG'
p816
F2.1550000000000002
sS'TTCG'
p817
F2.78
sS'TGAG'
p818
F2.04
sS'TGCG'
p819
F1.9900000000000002
sS'TCAG'
p820
F3.2
sS'TCCG'
p821
F3.25
sS'TTGG'
p822
F1.385
ssS'CCAT'
p823
(dp824
S'GTAA'
p825
F3.465
sS'GTCA'
p826
F3.395
sS'GCCA'
p827
F3.535
sS'GTGA'
p828
F2.8200000000000003
sS'GCGA'
p829
F2.96
sS'GCAA'
p830
F5.890000000000001
sS'GAAA'
p831
F3.45
sS'GAGA'
p832
F2.555
sS'GACA'
p833
F3.43
ssS'ATAG'
p834
(dp835
S'TGGC'
p836
F1.81
sS'TCGC'
p837
F2.92
sS'TTAC'
p838
F3.84
sS'TGCC'
p839
F2.15
sS'TCAC'
p840
F3.28
sS'TTCC'
p841
F2.94
sS'TGAC'
p842
F2.4699999999999998
sS'TTGC'
p843
F2.2
sS'TCCC'
p844
F3.41
ssS'GCTT'
p845
(dp846
S'CATA'
p847
F2.78
sS'CTTA'
p848
F2.855
sS'CCGA'
p849
F2.875
sS'CCCA'
p850
F3.365
sS'CACA'
p851
F3.205
sS'CTGA'
p852
F2.79
sS'CAGA'
p853
F2.715
sS'CTCA'
p854
F3.2800000000000002
sS'CCTA'
p855
F4.99
ssS'CCAA'
p856
(dp857
S'GAGT'
p858
F3.015
sS'GAAT'
p859
F3.49
sS'GACT'
p860
F3.6100000000000003
sS'GTCT'
p861
F3.575
sS'GCCT'
p862
F3.7150000000000003
sS'GTAT'
p863
F3.505
sS'GCAT'
p864
F5.4
sS'GTGT'
p865
F3.2800000000000002
sS'GCGT'
p866
F3.42
ssS'CCAC'
p867
(dp868
S'GCCG'
p869
F3.0349999999999997
sS'GTCG'
p870
F2.945
sS'GTAG'
p871
F2.8950000000000005
sS'GCAG'
p872
F4.23
sS'GCGG'
p873
F2.24
sS'GTGG'
p874
F1.85
sS'GAGG'
p875
F1.585
sS'GAAG'
p876
F2.93
sS'GACG'
p877
F2.93
ssS'TGTG'
p878
(dp879
S'ATGC'
p880
F0.81
sS'AAGC'
p881
F2.18
sS'AGGC'
p882
F0.7300000000000002
sS'AACC'
p883
F3.2800000000000002
sS'AGCC'
p884
F2.58
sS'AGTC'
p885
F3.58
sS'AATC'
p886
F2.1599999999999997
sS'ATTC'
p887
F2.005
sS'ATCC'
p888
F2.4250000000000003
ssS'ATAT'
p889
(dp890
S'TGGA'
p891
F2.1149999999999998
sS'TCGA'
p892
F3.125
sS'TTAA'
p893
F5.48
sS'TCAA'
p894
F3.7699999999999996
sS'TGCA'
p895
F2.49
sS'TTCA'
p896
F3.2300000000000004
sS'TGAA'
p897
F2.41
sS'TTGA'
p898
F2.3550000000000004
sS'TCCA'
p899
F3.6999999999999997
ssS'CCAG'
p900
(dp901
S'GTAC'
p902
F2.975
sS'GCCC'
p903
F3.245
sS'GTCC'
p904
F3.105
sS'GCGC'
p905
F2.755
sS'GTGC'
p906
F2.615
sS'GCAC'
p907
F4.25
sS'GAAC'
p908
F2.96
sS'GAGC'
p909
F2.35
sS'GACC'
p910
F3.1399999999999997
ssS'TAAG'
p911
(dp912
S'AGAC'
p913
F2.725
sS'ACAC'
p914
F3.475
sS'AGGC'
p915
F2.1149999999999998
sS'AACC'
p916
F3.49
sS'AGCC'
p917
F2.9050000000000002
sS'ACGC'
p918
F2.815
sS'ACCC'
p919
F3.6050000000000004
sS'AAAC'
p920
F4.34
sS'AAGC'
p921
F2.7
ssS'TAAC'
p922
(dp923
S'AAGG'
p924
F1.935
sS'ACAG'
p925
F3.3950000000000005
sS'AGGG'
p926
F1.35
sS'AGAG'
p927
F2.6950000000000003
sS'AAAG'
p928
F4.32
sS'ACCG'
p929
F3.4450000000000003
sS'AACG'
p930
F3.33
sS'AGCG'
p931
F2.6950000000000003
sS'ACGG'
p932
F2.05
ssS'TAAA'
p933
(dp934
S'AAGT'
p935
F3.365
sS'AAAT'
p936
F5.49
sS'AGGT'
p937
F2.78
sS'ACAT'
p938
F4.005
sS'AGAT'
p939
F3.255
sS'ACCT'
p940
F4.074999999999999
sS'AACT'
p941
F3.96
sS'AGCT'
p942
F3.375
sS'ACGT'
p943
F3.48
ssS'TGTC'
p944
(dp945
S'AAGG'
p946
F2.395
sS'AGGG'
p947
F0.9450000000000001
sS'ATGG'
p948
F1.0250000000000001
sS'AGTG'
p949
F3.42
sS'AACG'
p950
F3.23
sS'AGCG'
p951
F2.5300000000000002
sS'ATTG'
p952
F2.49
sS'ATCG'
p953
F2.4250000000000003
sS'AATG'
p954
F2.445
ssS'TGTA'
p955
(dp956
S'ATCT'
p957
F2.95
sS'ATTT'
p958
F2.6550000000000002
sS'AATT'
p959
F2.96
sS'AGGT'
p960
F1.3849999999999998
sS'AAGT'
p961
F2.835
sS'ATGT'
p962
F1.4649999999999999
sS'AGTT'
p963
F4.65
sS'AGCT'
p964
F2.955
sS'AACT'
p965
F3.6550000000000002
ssS'TCTT'
p966
(dp967
S'ATGA'
p968
F3.315
sS'AAGA'
p969
F3.495
sS'AACA'
p970
F3.835
sS'ACCA'
p971
F3.9450000000000003
sS'ACGA'
p972
F3.355
sS'AATA'
p973
F3.41
sS'ATTA'
p974
F3.33
sS'ATCA'
p975
F3.755
sS'ACTA'
p976
F5.18
ssS'ACTT'
p977
(dp978
S'TTTA'
p979
F3.215
sS'TCGA'
p980
F3.495
sS'TATA'
p981
F3.2300000000000004
sS'TTCA'
p982
F3.6399999999999997
sS'TAGA'
p983
F3.215
sS'TTGA'
p984
F3.15
sS'TACA'
p985
F3.655
sS'TCTA'
p986
F5.67
sS'TCCA'
p987
F3.9850000000000003
ssS'TAAT'
p988
(dp989
S'ACGA'
p990
F3.02
sS'AGAA'
p991
F3.215
sS'AGGA'
p992
F2.32
sS'AAGA'
p993
F2.9050000000000002
sS'ACAA'
p994
F3.965
sS'AGCA'
p995
F3.1950000000000003
sS'AACA'
p996
F3.7800000000000002
sS'ACCA'
p997
F3.895
sS'AAAA'
p998
F5.98
ssS'TCTG'
p999
(dp1000
S'ATGC'
p1001
F2.295
sS'AAGC'
p1002
F2.475
sS'AACC'
p1003
F3.575
sS'ACCC'
p1004
F3.6849999999999996
sS'AATC'
p1005
F2.7550000000000003
sS'ACGC'
p1006
F2.335
sS'ATTC'
p1007
F2.6750000000000003
sS'ATCC'
p1008
F3.4949999999999997
sS'ACTC'
p1009
F4.29
ssS'CTCA'
p1010
(dp1011
S'GTAT'
p1012
F2.8000000000000003
sS'GGCT'
p1013
F2.06
sS'GTCT'
p1014
F5.1899999999999995
sS'GCTT'
p1015
F3.425
sS'GCCT'
p1016
F3.575
sS'GGAT'
p1017
F1.995
sS'GGTT'
p1018
F1.9100000000000001
sS'GCAT'
p1019
F3.51
sS'GTTT'
p1020
F2.7150000000000003
ssS'ACTC'
p1021
(dp1022
S'TTTG'
p1023
F2.7950000000000004
sS'TATG'
p1024
F2.8600000000000003
sS'TCGG'
p1025
F2.69
sS'TTCG'
p1026
F3.2800000000000002
sS'TAGG'
p1027
F2.41
sS'TCTG'
p1028
F4.62
sS'TCCG'
p1029
F3.6250000000000004
sS'TTGG'
p1030
F2.345
sS'TACG'
p1031
F3.345
ssS'TCTC'
p1032
(dp1033
S'AAGG'
p1034
F2.69
sS'ATGG'
p1035
F2.5100000000000002
sS'ACCG'
p1036
F3.585
sS'AACG'
p1037
F3.5250000000000004
sS'ATTG'
p1038
F2.9099999999999997
sS'ATCG'
p1039
F3.3949999999999996
sS'AATG'
p1040
F3.04
sS'ACGG'
p1041
F2.5500000000000003
sS'ACTG'
p1042
F4.13
ssS'TATG'
p1043
(dp1044
S'AAGC'
p1045
F2.1550000000000002
sS'AGGC'
p1046
F2.02
sS'AACC'
p1047
F3.505
sS'AGCC'
p1048
F3.1700000000000004
sS'ACCC'
p1049
F3.62
sS'AGTC'
p1050
F2.05
sS'AATC'
p1051
F4.27
sS'ACGC'
p1052
F2.27
sS'ACTC'
p1053
F2.8000000000000003
ssS'TCTA'
p1054
(dp1055
S'ATCT'
p1056
F3.87
sS'ATTT'
p1057
F3.425
sS'ACGT'
p1058
F2.99
sS'AATT'
p1059
F3.555
sS'ACTT'
p1060
F5.359999999999999
sS'AAGT'
p1061
F3.13
sS'ATGT'
p1062
F2.95
sS'ACCT'
p1063
F4.0600000000000005
sS'AACT'
p1064
F3.95
ssS'ACTG'
p1065
(dp1066
S'TTTC'
p1067
F2.56
sS'TCGC'
p1068
F2.475
sS'TATC'
p1069
F2.575
sS'TTCC'
p1070
F3.38
sS'TAGC'
p1071
F2.1950000000000003
sS'TTGC'
p1072
F2.13
sS'TACC'
p1073
F3.395
sS'TCTC'
p1074
F4.779999999999999
sS'TCCC'
p1075
F3.7250000000000005
ssS'AAGG'
p1076
(dp1077
S'TAAC'
p1078
F2.62
sS'TGTC'
p1079
F1.605
sS'TCGC'
p1080
F2.335
sS'TGAC'
p1081
F2.135
sS'TATC'
p1082
F1.84
sS'TCAC'
p1083
F2.705
sS'TAGC'
p1084
F3.74
sS'TCTC'
p1085
F1.975
sS'TGGC'
p1086
F2.415
ssS'CTAG'
p1087
(dp1088
S'GTAC'
p1089
F3.7
sS'GGAC'
p1090
F1.9000000000000001
sS'GCCC'
p1091
F2.995
sS'GTCC'
p1092
F2.285
sS'GCGC'
p1093
F2.5050000000000003
sS'GTGC'
p1094
F1.5450000000000002
sS'GCAC'
p1095
F2.8649999999999998
sS'GGGC'
p1096
F1.2400000000000002
sS'GGCC'
p1097
F1.58
ssS'CGGA'
p1098
(dp1099
S'GAGT'
p1100
F2.475
sS'GGGT'
p1101
F3.64
sS'GTAT'
p1102
F2.02
sS'GAAT'
p1103
F2.1149999999999998
sS'GATT'
p1104
F1.9899999999999998
sS'GGAT'
p1105
F2.355
sS'GGTT'
p1106
F0.5800000000000001
sS'GTGT'
p1107
F0.7300000000000002
sS'GTTT'
p1108
F0.14500000000000024
ssS'AAGC'
p1109
(dp1110
S'TAAG'
p1111
F2.33
sS'TGGG'
p1112
F1.915
sS'TATG'
p1113
F1.5050000000000001
sS'TGTG'
p1114
F1.2700000000000002
sS'TCGG'
p1115
F1.835
sS'TAGG'
p1116
F3.24
sS'TCAG'
p1117
F2.415
sS'TCTG'
p1118
F1.6400000000000001
sS'TGAG'
p1119
F1.8450000000000002
ssS'ACGT'
p1120
(dp1121
S'TTTA'
p1122
F2.4250000000000003
sS'TAAA'
p1123
F3.255
sS'TCGA'
p1124
F5.609999999999999
sS'TATA'
p1125
F2.49
sS'TTAA'
p1126
F3.49
sS'TCAA'
p1127
F3.835
sS'TAGA'
p1128
F2.52
sS'TTGA'
p1129
F2.455
sS'TCTA'
p1130
F2.77
ssS'AAGA'
p1131
(dp1132
S'TAGT'
p1133
F4.57
sS'TGAT'
p1134
F2.73
sS'TCAT'
p1135
F3.3000000000000003
sS'TCTT'
p1136
F2.725
sS'TGGT'
p1137
F3.09
sS'TAAT'
p1138
F3.215
sS'TATT'
p1139
F2.59
sS'TCGT'
p1140
F3.01
sS'TGTT'
p1141
F2.355
ssS'CTAA'
p1142
(dp1143
S'GGGT'
p1144
F1.9050000000000002
sS'GGCT'
p1145
F2.2
sS'GTCT'
p1146
F2.7550000000000003
sS'GCCT'
p1147
F3.465
sS'GGAT'
p1148
F1.8800000000000001
sS'GTAT'
p1149
F4.85
sS'GCAT'
p1150
F3.3949999999999996
sS'GTGT'
p1151
F2.1599999999999997
sS'GCGT'
p1152
F3.17
ssS'CTCT'
p1153
(dp1154
S'GGAA'
p1155
F1.975
sS'GTTA'
p1156
F2.605
sS'GGTA'
p1157
F1.9
sS'GTCA'
p1158
F5.37
sS'GCCA'
p1159
F3.615
sS'GCTA'
p1160
F3.3150000000000004
sS'GCAA'
p1161
F3.3899999999999997
sS'GTAA'
p1162
F2.68
sS'GGCA'
p1163
F2.2
ssS'GTGC'
p1164
(dp1165
S'CTAG'
p1166
F1.4500000000000002
sS'CGAG'
p1167
F0.6250000000000002
sS'CGGG'
p1168
F-1.005
sS'CCGG'
p1169
F1.535
sS'CTTG'
p1170
F0.8250000000000001
sS'CTGG'
p1171
F2.35
sS'CGTG'
p1172
F-1.15
sS'CCTG'
p1173
F1.3400000000000003
sS'CCAG'
p1174
F2.415
ssS'GTGG'
p1175
(dp1176
S'CGGC'
p1177
F-0.5049999999999997
sS'CTAC'
p1178
F2.49
sS'CGAC'
p1179
F0.8650000000000001
sS'CCGC'
p1180
F2.335
sS'CTTC'
p1181
F1.1600000000000001
sS'CTGC'
p1182
F2.85
sS'CCTC'
p1183
F1.6749999999999998
sS'CCAC'
p1184
F2.6550000000000002
sS'CGTC'
p1185
F-0.815
ssS'ACGA'
p1186
(dp1187
S'TAGT'
p1188
F2.9050000000000002
sS'TCAT'
p1189
F3.775
sS'TCTT'
p1190
F2.95
sS'TTGT'
p1191
F2.84
sS'TAAT'
p1192
F3.1950000000000003
sS'TTTT'
p1193
F2.605
sS'TATT'
p1194
F2.67
sS'TTAT'
p1195
F3.43
sS'TCGT'
p1196
F5.14
ssS'ACGC'
p1197
(dp1198
S'TAAG'
p1199
F2.31
sS'TTTG'
p1200
F1.5200000000000002
sS'TTAG'
p1201
F2.545
sS'TATG'
p1202
F1.5850000000000002
sS'TCGG'
p1203
F3.81
sS'TAGG'
p1204
F1.73
sS'TCAG'
p1205
F2.8899999999999997
sS'TCTG'
p1206
F1.865
sS'TTGG'
p1207
F1.7149999999999999
ssS'AAGT'
p1208
(dp1209
S'TAAA'
p1210
F3.275
sS'TGTA'
p1211
F2.175
sS'TCGA'
p1212
F2.625
sS'TATA'
p1213
F2.41
sS'TCAA'
p1214
F3.3600000000000003
sS'TAGA'
p1215
F5.04
sS'TGGA'
p1216
F2.705
sS'TCTA'
p1217
F2.545
sS'TGAA'
p1218
F2.79
ssS'ACGG'
p1219
(dp1220
S'TTTC'
p1221
F1.855
sS'TAAC'
p1222
F2.6
sS'TCGC'
p1223
F4.31
sS'TTAC'
p1224
F2.835
sS'TATC'
p1225
F1.92
sS'TCAC'
p1226
F3.1799999999999997
sS'TAGC'
p1227
F2.23
sS'TTGC'
p1228
F2.215
sS'TCTC'
p1229
F2.2
ssS'CGGT'
p1230
(dp1231
S'GGAA'
p1232
F2.415
sS'GTTA'
p1233
F-0.03499999999999992
sS'GGTA'
p1234
F0.40000000000000013
sS'GTGA'
p1235
F0.44500000000000006
sS'GAAA'
p1236
F2.175
sS'GTAA'
p1237
F1.88
sS'GAGA'
p1238
F2.09
sS'GGGA'
p1239
F4.109999999999999
sS'GATA'
p1240
F1.81
ssS'GGCC'
p1241
(dp1242
S'CTAG'
p1243
F2.08
sS'CGAG'
p1244
F1.4
sS'CATG'
p1245
F1.9300000000000002
sS'CAAG'
p1246
F1.545
sS'CTTG'
p1247
F2.165
sS'CACG'
p1248
F1.835
sS'CGCG'
p1249
F3.15
sS'CGTG'
p1250
F1.535
sS'CTCG'
p1251
F2.07
ssS'GGCA'
p1252
(dp1253
S'CACT'
p1254
F2.415
sS'CGTT'
p1255
F1.87
sS'CGCT'
p1256
F4.12
sS'CTCT'
p1257
F2.5500000000000003
sS'CGAT'
p1258
F1.955
sS'CTAT'
p1259
F2.485
sS'CATT'
p1260
F2.265
sS'CTTT'
p1261
F2.4
sS'CAAT'
p1262
F2.05
ssS'GGCG'
p1263
(dp1264
S'CATC'
p1265
F1.74
sS'CTAC'
p1266
F1.6999999999999997
sS'CGAC'
p1267
F1.4700000000000002
sS'CAAC'
p1268
F1.965
sS'CTTC'
p1269
F1.775
sS'CACC'
p1270
F2.24
sS'CTCC'
p1271
F2.025
sS'CGCC'
p1272
F2.88
sS'CGTC'
p1273
F1.145
ssS'TTAT'
p1274
(dp1275
S'AGAA'
p1276
F2.59
sS'ATGA'
p1277
F2.5
sS'AGGA'
p1278
F2.295
sS'ACAA'
p1279
F3.88
sS'AGCA'
p1280
F2.67
sS'ATAA'
p1281
F5.92
sS'ACCA'
p1282
F3.81
sS'ACGA'
p1283
F3.2350000000000003
sS'ATCA'
p1284
F3.3750000000000004
ssS'TTCT'
p1285
(dp1286
S'AGAA'
p1287
F2.725
sS'ACAA'
p1288
F3.915
sS'AGCA'
p1289
F2.95
sS'ATAA'
p1290
F3.48
sS'ACCA'
p1291
F4.14
sS'AGTA'
p1292
F2.65
sS'ATTA'
p1293
F3.355
sS'ATCA'
p1294
F5.95
sS'ACTA'
p1295
F3.84
ssS'AGGG'
p1296
(dp1297
S'TTTC'
p1298
F0.41500000000000004
sS'TGGC'
p1299
F2.98
sS'TGTC'
p1300
F0.17000000000000015
sS'TAGC'
p1301
F2.005
sS'TTAC'
p1302
F2.495
sS'TATC'
p1303
F1.5450000000000002
sS'TGAC'
p1304
F2.05
sS'TTGC'
p1305
F1.125
sS'TAAC'
p1306
F1.7249999999999999
ssS'AGGA'
p1307
(dp1308
S'TAGT'
p1309
F2.68
sS'TGAT'
p1310
F2.645
sS'TGGT'
p1311
F3.81
sS'TTGT'
p1312
F1.75
sS'TAAT'
p1313
F2.32
sS'TTTT'
p1314
F1.165
sS'TATT'
p1315
F2.295
sS'TTAT'
p1316
F3.04
sS'TGTT'
p1317
F0.92
ssS'AGGC'
p1318
(dp1319
S'TAAG'
p1320
F1.435
sS'TGGG'
p1321
F2.48
sS'TTAG'
p1322
F2.5050000000000003
sS'TATG'
p1323
F1.2100000000000002
sS'TTTG'
p1324
F0.0800000000000003
sS'TGTG'
p1325
F-0.16500000000000004
sS'TAGG'
p1326
F1.505
sS'TGAG'
p1327
F1.76
sS'TTGG'
p1328
F0.6250000000000001
ssS'TCAA'
p1329
(dp1330
S'ATCT'
p1331
F3.95
sS'AAGT'
p1332
F3.485
sS'AAAT'
p1333
F3.96
sS'ACAT'
p1334
F5.51
sS'ATGT'
p1335
F3.6550000000000002
sS'ACCT'
p1336
F4.140000000000001
sS'AACT'
p1337
F4.08
sS'ATAT'
p1338
F3.88
sS'ACGT'
p1339
F3.845
ssS'GATT'
p1340
(dp1341
S'CATA'
p1342
F4.54
sS'CGGA'
p1343
F2.5050000000000003
sS'CCGA'
p1344
F2.885
sS'CCCA'
p1345
F3.325
sS'CACA'
p1346
F3.1550000000000002
sS'CAGA'
p1347
F2.915
sS'CCTA'
p1348
F2.9
sS'CGCA'
p1349
F2.545
sS'CGTA'
p1350
F1.87
ssS'CCCT'
p1351
(dp1352
S'GTTA'
p1353
F3.425
sS'GTAA'
p1354
F3.5
sS'GTCA'
p1355
F3.7250000000000005
sS'GCCA'
p1356
F5.92
sS'GCTA'
p1357
F3.515
sS'GCAA'
p1358
F3.6399999999999997
sS'GAAA'
p1359
F3.5349999999999997
sS'GACA'
p1360
F3.7100000000000004
sS'GATA'
p1361
F3.41
ssS'GACT'
p1362
(dp1363
S'CATA'
p1364
F3.2
sS'CGAA'
p1365
F2.415
sS'CAAA'
p1366
F3.325
sS'CCCA'
p1367
F3.67
sS'CACA'
p1368
F5.39
sS'CCAA'
p1369
F3.495
sS'CCTA'
p1370
F3.37
sS'CGCA'
p1371
F2.8899999999999997
sS'CGTA'
p1372
F2.59
ssS'AGGT'
p1373
(dp1374
S'TTTA'
p1375
F0.9849999999999999
sS'TGGA'
p1376
F4.28
sS'TGTA'
p1377
F0.74
sS'TAAA'
p1378
F2.38
sS'TATA'
p1379
F2.1149999999999998
sS'TTAA'
p1380
F2.9
sS'TAGA'
p1381
F2.295
sS'TTGA'
p1382
F1.4649999999999999
sS'TGAA'
p1383
F2.705
ssS'TTCG'
p1384
(dp1385
S'AGAC'
p1386
F2.3600000000000003
sS'ACAC'
p1387
F3.75
sS'AGCC'
p1388
F2.535
sS'ATAC'
p1389
F3.265
sS'ACCC'
p1390
F3.625
sS'AGTC'
p1391
F2.135
sS'ATTC'
p1392
F2.94
sS'ATCC'
p1393
F4.53
sS'ACTC'
p1394
F3.425
ssS'CTGG'
p1395
(dp1396
S'GGTC'
p1397
F-0.48
sS'GGAC'
p1398
F1.2000000000000002
sS'GCTC'
p1399
F1.3850000000000002
sS'GTAC'
p1400
F1.5050000000000001
sS'GCGC'
p1401
F1.845
sS'GTGC'
p1402
F3.16
sS'GTTC'
p1403
F1.0750000000000002
sS'GCAC'
p1404
F2.4650000000000003
sS'GGGC'
p1405
F-0.16999999999999993
ssS'TTCA'
p1406
(dp1407
S'ATCT'
p1408
F5.77
sS'ATTT'
p1409
F3.465
sS'ACTT'
p1410
F3.9499999999999997
sS'ACAT'
p1411
F4.035
sS'AGAT'
p1412
F2.745
sS'AGTT'
p1413
F2.66
sS'ACCT'
p1414
F4.1
sS'ATAT'
p1415
F3.55
sS'AGCT'
p1416
F2.81
ssS'TTCC'
p1417
(dp1418
S'ACAG'
p1419
F3.48
sS'AGAG'
p1420
F2.34
sS'ACCG'
p1421
F3.5200000000000005
sS'AGTG'
p1422
F2.425
sS'AGCG'
p1423
F2.33
sS'ATAG'
p1424
F3.045
sS'ATTG'
p1425
F3.13
sS'ATCG'
p1426
F4.8
sS'ACTG'
p1427
F3.615
ssS'GACA'
p1428
(dp1429
S'CACT'
p1430
F5.21
sS'CCCT'
p1431
F3.63
sS'CGTT'
p1432
F2.6999999999999997
sS'CGCT'
p1433
F2.85
sS'CCAT'
p1434
F3.565
sS'CCTT'
p1435
F3.48
sS'CGAT'
p1436
F2.4850000000000003
sS'CATT'
p1437
F3.3100000000000005
sS'CAAT'
p1438
F3.3950000000000005
ssS'GACC'
p1439
(dp1440
S'CGAG'
p1441
F1.98
sS'CATG'
p1442
F2.975
sS'CAAG'
p1443
F2.89
sS'CACG'
p1444
F4.24
sS'CCCG'
p1445
F3.0500000000000003
sS'CGCG'
p1446
F2.3200000000000003
sS'CGTG'
p1447
F2.415
sS'CCTG'
p1448
F3.1450000000000005
sS'CCAG'
p1449
F3.0600000000000005
ssS'GATG'
p1450
(dp1451
S'CGGC'
p1452
F1.4849999999999999
sS'CATC'
p1453
F3.65
sS'CCGC'
p1454
F1.8650000000000002
sS'CCCC'
p1455
F3.0650000000000004
sS'CACC'
p1456
F2.8950000000000005
sS'CCTC'
p1457
F2.295
sS'CAGC'
p1458
F1.895
sS'CGCC'
p1459
F2.285
sS'CGTC'
p1460
F2.315
ssS'GATA'
p1461
(dp1462
S'CACT'
p1463
F3.27
sS'CCCT'
p1464
F3.44
sS'CGTT'
p1465
F1.965
sS'CGCT'
p1466
F2.66
sS'CAGT'
p1467
F2.55
sS'CCTT'
p1468
F3.045
sS'CATT'
p1469
F4.72
sS'CGGT'
p1470
F2.14
sS'CCGT'
p1471
F2.52
ssS'GACG'
p1472
(dp1473
S'CATC'
p1474
F2.785
sS'CGAC'
p1475
F2.1999999999999997
sS'CAAC'
p1476
F2.56
sS'CCCC'
p1477
F3.505
sS'CACC'
p1478
F3.9699999999999998
sS'CCTC'
p1479
F2.955
sS'CCAC'
p1480
F2.83
sS'CGCC'
p1481
F2.375
sS'CGTC'
p1482
F2.125
ssS'AATG'
p1483
(dp1484
S'TGGC'
p1485
F1.88
sS'TGTC'
p1486
F2.11
sS'TCGC'
p1487
F2.25
sS'TATC'
p1488
F4.21
sS'TGCC'
p1489
F3.2300000000000004
sS'TAGC'
p1490
F2.115
sS'TACC'
p1491
F3.465
sS'TCTC'
p1492
F2.68
sS'TCCC'
p1493
F3.5
ssS'GCCG'
p1494
(dp1495
S'CATC'
p1496
F2.835
sS'CTAC'
p1497
F3.2350000000000003
sS'CAAC'
p1498
F3.16
sS'CTTC'
p1499
F2.91
sS'CCCC'
p1500
F4.42
sS'CACC'
p1501
F3.0349999999999997
sS'CCTC'
p1502
F2.995
sS'CCAC'
p1503
F3.3200000000000003
sS'CTCC'
p1504
F3.16
ssS'GGAA'
p1505
(dp1506
S'CTGT'
p1507
F2.395
sS'CACT'
p1508
F2.055
sS'CGCT'
p1509
F1.9100000000000001
sS'CTCT'
p1510
F2.69
sS'CAGT'
p1511
F1.4600000000000002
sS'CGAT'
p1512
F3.7800000000000002
sS'CTAT'
p1513
F2.37
sS'CGGT'
p1514
F1.9649999999999999
sS'CAAT'
p1515
F1.935
ssS'ATCT'
p1516
(dp1517
S'TTTA'
p1518
F3.26
sS'TGTA'
p1519
F2.47
sS'TTAA'
p1520
F3.335
sS'TCAA'
p1521
F3.8049999999999997
sS'TGCA'
p1522
F2.77
sS'TTCA'
p1523
F5.51
sS'TGAA'
p1524
F2.545
sS'TCTA'
p1525
F3.7300000000000004
sS'TCCA'
p1526
F4.03
ssS'GCCC'
p1527
(dp1528
S'CTAG'
p1529
F3.015
sS'CATG'
p1530
F3.025
sS'CAAG'
p1531
F2.89
sS'CTTG'
p1532
F3.1
sS'CACG'
p1533
F2.93
sS'CCCG'
p1534
F4.6899999999999995
sS'CCTG'
p1535
F3.185
sS'CCAG'
p1536
F3.0500000000000003
sS'CTCG'
p1537
F3.005
ssS'GCCA'
p1538
(dp1539
S'CACT'
p1540
F3.51
sS'CCCT'
p1541
F5.66
sS'CTCT'
p1542
F3.585
sS'CCAT'
p1543
F3.6050000000000004
sS'CCTT'
p1544
F3.5200000000000005
sS'CTAT'
p1545
F3.5200000000000005
sS'CATT'
p1546
F3.3600000000000003
sS'CTTT'
p1547
F3.4350000000000005
sS'CAAT'
p1548
F3.4450000000000003
ssS'CCGG'
p1549
(dp1550
S'GTAC'
p1551
F2.575
sS'GTTC'
p1552
F1.495
sS'GCTC'
p1553
F1.7850000000000001
sS'GCGC'
p1554
F3.71
sS'GTGC'
p1555
F1.955
sS'GCAC'
p1556
F2.715
sS'GAAC'
p1557
F2.31
sS'GAGC'
p1558
F1.9400000000000002
sS'GATC'
p1559
F1.58
ssS'TACT'
p1560
(dp1561
S'AGAA'
p1562
F3.3000000000000003
sS'ACAA'
p1563
F4.0
sS'AGCA'
p1564
F3.775
sS'AACA'
p1565
F6.01
sS'ACCA'
p1566
F4.225
sS'AGTA'
p1567
F3.475
sS'AAAA'
p1568
F3.885
sS'AATA'
p1569
F3.8099999999999996
sS'ACTA'
p1570
F3.925
ssS'TCAG'
p1571
(dp1572
S'ATGC'
p1573
F2.9899999999999998
sS'ACAC'
p1574
F4.359999999999999
sS'AACC'
p1575
F3.6100000000000003
sS'ATAC'
p1576
F3.35
sS'ACGC'
p1577
F3.1799999999999997
sS'ACCC'
p1578
F3.67
sS'AAAC'
p1579
F3.43
sS'ATCC'
p1580
F3.4800000000000004
sS'AAGC'
p1581
F2.82
ssS'CCGC'
p1582
(dp1583
S'GCTG'
p1584
F1.4500000000000002
sS'GTAG'
p1585
F2.285
sS'GTTG'
p1586
F1.1600000000000001
sS'GCAG'
p1587
F2.375
sS'GCGG'
p1588
F3.21
sS'GTGG'
p1589
F1.655
sS'GAGG'
p1590
F1.4400000000000002
sS'GAAG'
p1591
F2.4200000000000004
sS'GATG'
p1592
F1.245
ssS'CAGT'
p1593
(dp1594
S'GGAA'
p1595
F2.135
sS'GGTA'
p1596
F1.77
sS'GCTA'
p1597
F2.1799999999999997
sS'GCGA'
p1598
F2.4099999999999997
sS'GCAA'
p1599
F3.145
sS'GAAA'
p1600
F2.785
sS'GAGA'
p1601
F4.87
sS'GGGA'
p1602
F2.05
sS'GATA'
p1603
F2.4699999999999998
ssS'CCGA'
p1604
(dp1605
S'GAGT'
p1606
F2.615
sS'GAAT'
p1607
F2.9050000000000002
sS'GATT'
p1608
F2.33
sS'GCTT'
p1609
F2.535
sS'GTTT'
p1610
F2.245
sS'GTAT'
p1611
F3.1700000000000004
sS'GCAT'
p1612
F3.3099999999999996
sS'GTGT'
p1613
F2.58
sS'GCGT'
p1614
F4.54
ssS'ATCG'
p1615
(dp1616
S'TTTC'
p1617
F2.8449999999999998
sS'TGTC'
p1618
F1.955
sS'TTAC'
p1619
F3.17
sS'TGCC'
p1620
F2.355
sS'TCAC'
p1621
F3.64
sS'TTCC'
p1622
F4.09
sS'TGAC'
p1623
F2.1799999999999997
sS'TCTC'
p1624
F3.3150000000000004
sS'TCCC'
p1625
F3.515
ssS'GCCT'
p1626
(dp1627
S'CATA'
p1628
F3.25
sS'CTAA'
p1629
F3.4499999999999997
sS'CTTA'
p1630
F3.325
sS'CAAA'
p1631
F3.325
sS'CCCA'
p1632
F5.84
sS'CACA'
p1633
F3.5500000000000003
sS'CCAA'
p1634
F3.485
sS'CTCA'
p1635
F3.6250000000000004
sS'CCTA'
p1636
F3.41
ssS'ATCC'
p1637
(dp1638
S'TTTG'
p1639
F3.0349999999999997
sS'TTAG'
p1640
F2.9
sS'TGTG'
p1641
F2.245
sS'TTCG'
p1642
F4.359999999999999
sS'TGAG'
p1643
F2.16
sS'TGCG'
p1644
F2.15
sS'TCAG'
p1645
F3.37
sS'TCTG'
p1646
F3.5050000000000003
sS'TCCG'
p1647
F3.41
ssS'ATCA'
p1648
(dp1649
S'TGAT'
p1650
F2.565
sS'TTCT'
p1651
F5.33
sS'TCAT'
p1652
F3.925
sS'TGCT'
p1653
F2.6300000000000003
sS'TCCT'
p1654
F3.99
sS'TCTT'
p1655
F3.84
sS'TTTT'
p1656
F3.37
sS'TTAT'
p1657
F3.455
sS'TGTT'
p1658
F2.48
ssS'CAGA'
p1659
(dp1660
S'GAGT'
p1661
F4.4
sS'GGGT'
p1662
F2.435
sS'GAAT'
p1663
F2.725
sS'GATT'
p1664
F2.6500000000000004
sS'GCTT'
p1665
F2.3600000000000003
sS'GGAT'
p1666
F2.0749999999999997
sS'GGTT'
p1667
F1.9500000000000002
sS'GCAT'
p1668
F3.085
sS'GCGT'
p1669
F2.795
ssS'CCTC'
p1670
(dp1671
S'GCCG'
p1672
F3.16
sS'GCTG'
p1673
F4.02
sS'GTCG'
p1674
F3.02
sS'GTTG'
p1675
F2.435
sS'GCGG'
p1676
F2.025
sS'GTGG'
p1677
F1.9849999999999999
sS'GAGG'
p1678
F2.07
sS'GATG'
p1679
F2.32
sS'GACG'
p1680
F3.0549999999999997
ssS'CAGC'
p1681
(dp1682
S'GCTG'
p1683
F1.2750000000000004
sS'GGTG'
p1684
F0.8650000000000001
sS'GGAG'
p1685
F1.3399999999999999
sS'GCAG'
p1686
F2.1999999999999997
sS'GCGG'
p1687
F1.4700000000000002
sS'GGGG'
p1688
F1.26
sS'GAGG'
p1689
F3.0700000000000003
sS'GAAG'
p1690
F2.0900000000000003
sS'GATG'
p1691
F1.5650000000000002
ssS'CCTA'
p1692
(dp1693
S'GAGT'
p1694
F2.5100000000000002
sS'GATT'
p1695
F3.085
sS'GACT'
p1696
F3.4800000000000004
sS'GTCT'
p1697
F3.4949999999999997
sS'GCTT'
p1698
F5.25
sS'GCCT'
p1699
F3.585
sS'GTTT'
p1700
F3.0500000000000003
sS'GTGT'
p1701
F2.4250000000000003
sS'GCGT'
p1702
F2.4650000000000003
ssS'GGCT'
p1703
(dp1704
S'CATA'
p1705
F2.1550000000000002
sS'CGAA'
p1706
F1.835
sS'CTAA'
p1707
F2.4650000000000003
sS'CTTA'
p1708
F2.39
sS'CAAA'
p1709
F1.98
sS'CACA'
p1710
F2.455
sS'CTCA'
p1711
F2.69
sS'CGCA'
p1712
F4.3
sS'CGTA'
p1713
F1.7599999999999998
ssS'CCTG'
p1714
(dp1715
S'GTTC'
p1716
F2.3
sS'GCCC'
p1717
F3.21
sS'GCTC'
p1718
F4.18
sS'GTCC'
p1719
F3.12
sS'GCGC'
p1720
F1.81
sS'GTGC'
p1721
F1.77
sS'GAGC'
p1722
F1.855
sS'GACC'
p1723
F3.105
sS'GATC'
p1724
F2.285
ssS'CAGG'
p1725
(dp1726
S'GGTC'
p1727
F1.2000000000000002
sS'GGAC'
p1728
F1.48
sS'GCTC'
p1729
F1.6100000000000003
sS'GCGC'
p1730
F2.17
sS'GCAC'
p1731
F2.4899999999999998
sS'GAAC'
p1732
F2.1300000000000003
sS'GGGC'
p1733
F1.76
sS'GAGC'
p1734
F3.5700000000000003
sS'GATC'
p1735
F1.9000000000000001
ssS'TGGG'
p1736
(dp1737
S'AGAC'
p1738
F2.435
sS'ATGC'
p1739
F0.76
sS'AAGC'
p1740
F2.4650000000000003
sS'AGGC'
p1741
F3.11
sS'ATAC'
p1742
F2.1300000000000003
sS'AGTC'
p1743
F0.4550000000000003
sS'AATC'
p1744
F1.9050000000000002
sS'AAAC'
p1745
F2.185
sS'ATTC'
p1746
F0.050000000000000044
ssS'CTCC'
p1747
(dp1748
S'GCCG'
p1749
F2.995
sS'GCTG'
p1750
F3.0900000000000003
sS'GTCG'
p1751
F4.22
sS'GGTG'
p1752
F1.6749999999999998
sS'GGAG'
p1753
F1.5899999999999999
sS'GCAG'
p1754
F2.955
sS'GTTG'
p1755
F2.38
sS'GGCG'
p1756
F1.58
sS'GTAG'
p1757
F2.295
ssS'TGGC'
p1758
(dp1759
S'AAGG'
p1760
F1.9649999999999999
sS'AGGG'
p1761
F2.61
sS'AGAG'
p1762
F2.145
sS'ATGG'
p1763
F0.26
sS'AGTG'
p1764
F0.1200000000000001
sS'ATAG'
p1765
F2.14
sS'ATTG'
p1766
F-0.2849999999999999
sS'AATG'
p1767
F1.57
sS'AAAG'
p1768
F1.895
ssS'TGGA'
p1769
(dp1770
S'ATTT'
p1771
F0.8
sS'AAAT'
p1772
F2.78
sS'AATT'
p1773
F2.655
sS'AGGT'
p1774
F3.94
sS'AAGT'
p1775
F3.14
sS'ATGT'
p1776
F1.3849999999999998
sS'AGAT'
p1777
F3.0300000000000002
sS'AGTT'
p1778
F1.205
sS'ATAT'
p1779
F2.675
ssS'TCGC'
p1780
(dp1781
S'AAGG'
p1782
F1.9100000000000001
sS'ACAG'
p1783
F2.85
sS'AAAG'
p1784
F2.4899999999999998
sS'ATGG'
p1785
F1.83
sS'ATAG'
p1786
F2.66
sS'ATTG'
p1787
F1.685
sS'AATG'
p1788
F1.865
sS'ACGG'
p1789
F3.32
sS'ACTG'
p1790
F1.7250000000000003
ssS'TCGA'
p1791
(dp1792
S'ATTT'
p1793
F2.77
sS'AAGT'
p1794
F3.085
sS'AAAT'
p1795
F3.375
sS'AATT'
p1796
F2.95
sS'ACTT'
p1797
F2.81
sS'ACAT'
p1798
F3.7350000000000003
sS'ATGT'
p1799
F2.955
sS'ATAT'
p1800
F3.545
sS'ACGT'
p1801
F4.65
ssS'CACG'
p1802
(dp1803
S'GGTC'
p1804
F2.4650000000000003
sS'GGAC'
p1805
F2.4899999999999998
sS'GCCC'
p1806
F3.425
sS'GCTC'
p1807
F3.225
sS'GCAC'
p1808
F3.55
sS'GAAC'
p1809
F3.1900000000000004
sS'GGCC'
p1810
F2.715
sS'GACC'
p1811
F4.36
sS'GATC'
p1812
F2.8649999999999998
ssS'TTAG'
p1813
(dp1814
S'AGAC'
p1815
F2.6500000000000004
sS'ATGC'
p1816
F2.2950000000000004
sS'ACAC'
p1817
F3.39
sS'AGGC'
p1818
F1.9899999999999998
sS'AGCC'
p1819
F2.33
sS'ATAC'
p1820
F4.28
sS'ACCC'
p1821
F3.5200000000000005
sS'ACGC'
p1822
F3.0300000000000002
sS'ATCC'
p1823
F3.085
ssS'TGGT'
p1824
(dp1825
S'AGAA'
p1826
F3.09
sS'ATGA'
p1827
F1.1
sS'AGGA'
p1828
F4.41
sS'AAGA'
p1829
F2.755
sS'ATAA'
p1830
F2.535
sS'AGTA'
p1831
F1.0250000000000001
sS'AAAA'
p1832
F2.8400000000000003
sS'AATA'
p1833
F2.475
sS'ATTA'
p1834
F0.6199999999999997
ssS'TAGG'
p1835
(dp1836
S'AGAC'
p1837
F2.0749999999999997
sS'AAGC'
p1838
F3.8
sS'AGGC'
p1839
F2.355
sS'ACGC'
p1840
F2.455
sS'AGTC'
p1841
F1.745
sS'AATC'
p1842
F1.8800000000000001
sS'AAAC'
p1843
F2.66
sS'ACAC'
p1844
F2.775
sS'ACTC'
p1845
F1.995
ssS'GTGA'
p1846
(dp1847
S'CTGT'
p1848
F3.6799999999999997
sS'CGTT'
p1849
F-0.06499999999999995
sS'CCAT'
p1850
F3.25
sS'CCTT'
p1851
F2.425
sS'CGAT'
p1852
F1.4100000000000001
sS'CTAT'
p1853
F2.335
sS'CGGT'
p1854
F0.1200000000000001
sS'CTTT'
p1855
F1.9100000000000001
sS'CCGT'
p1856
F2.6599999999999997
ssS'CCCG'
p1857
(dp1858
S'GTAC'
p1859
F3.3350000000000004
sS'GTTC'
p1860
F3.01
sS'GCCC'
p1861
F4.5
sS'GCTC'
p1862
F3.1
sS'GTCC'
p1863
F3.21
sS'GCAC'
p1864
F3.425
sS'GAAC'
p1865
F3.3200000000000003
sS'GACC'
p1866
F3.245
sS'GATC'
p1867
F2.995
ssS'CTCG'
p1868
(dp1869
S'GGTC'
p1870
F1.3850000000000002
sS'GGAC'
p1871
F1.6100000000000003
sS'GCCC'
p1872
F3.1
sS'GCTC'
p1873
F2.9000000000000004
sS'GTAC'
p1874
F2.515
sS'GTCC'
p1875
F3.95
sS'GTTC'
p1876
F2.19
sS'GCAC'
p1877
F3.225
sS'GGCC'
p1878
F1.7850000000000001
ssS'GATC'
p1879
(dp1880
S'CGGG'
p1881
F1.7000000000000002
sS'CATG'
p1882
F3.49
sS'CCGG'
p1883
F2.08
sS'CACG'
p1884
F2.845
sS'CCCG'
p1885
F3.015
sS'CGCG'
p1886
F2.2350000000000003
sS'CGTG'
p1887
F1.4500000000000002
sS'CCTG'
p1888
F2.5300000000000002
sS'CAGG'
p1889
F2.11
ssS'TCGT'
p1890
(dp1891
S'ACGA'
p1892
F5.12
sS'ATGA'
p1893
F2.5700000000000003
sS'AAGA'
p1894
F2.7
sS'ACAA'
p1895
F3.795
sS'ATAA'
p1896
F3.605
sS'AAAA'
p1897
F3.435
sS'AATA'
p1898
F2.77
sS'ATTA'
p1899
F2.5900000000000003
sS'ACTA'
p1900
F2.6300000000000003
ssS'TAGA'
p1901
(dp1902
S'AAGT'
p1903
F4.63
sS'AAAT'
p1904
F3.255
sS'AATT'
p1905
F2.63
sS'ACTT'
p1906
F2.745
sS'AGGT'
p1907
F3.0300000000000002
sS'ACAT'
p1908
F3.37
sS'AGAT'
p1909
F2.6700000000000004
sS'AGTT'
p1910
F2.495
sS'ACGT'
p1911
F3.08
ssS'ACAG'
p1912
(dp1913
S'TAAC'
p1914
F3.25
sS'TCGC'
p1915
F3.2199999999999998
sS'TTAC'
p1916
F3.235
sS'TCAC'
p1917
F4.85
sS'TTCC'
p1918
F3.365
sS'TAGC'
p1919
F2.64
sS'TTGC'
p1920
F2.875
sS'TACC'
p1921
F3.43
sS'TCCC'
p1922
F3.7100000000000004
ssS'CGGC'
p1923
(dp1924
S'GGTG'
p1925
F-0.5049999999999997
sS'GGAG'
p1926
F1.4700000000000002
sS'GTGG'
p1927
F-0.3949999999999998
sS'GGGG'
p1928
F2.31
sS'GAGG'
p1929
F1.1500000000000001
sS'GAAG'
p1930
F1.48
sS'GTTG'
p1931
F-0.94
sS'GATG'
p1932
F0.9050000000000001
sS'GTAG'
p1933
F1.4849999999999999
ssS'ACAC'
p1934
(dp1935
S'TAAG'
p1936
F3.2199999999999998
sS'TTAG'
p1937
F3.1550000000000002
sS'TCGG'
p1938
F2.455
sS'TTCG'
p1939
F3.205
sS'TAGG'
p1940
F1.875
sS'TCAG'
p1941
F4.83
sS'TCCG'
p1942
F3.5500000000000003
sS'TTGG'
p1943
F2.1100000000000003
sS'TACG'
p1944
F3.2199999999999998
ssS'ATGT'
p1945
(dp1946
S'TTTA'
p1947
F2.3000000000000003
sS'TGGA'
p1948
F0.74
sS'TGTA'
p1949
F0.6600000000000001
sS'TCGA'
p1950
F2.5
sS'TTAA'
p1951
F2.7649999999999997
sS'TCAA'
p1952
F3.535
sS'TGAA'
p1953
F2.175
sS'TTGA'
p1954
F4.6
sS'TCTA'
p1955
F2.47
ssS'ACAA'
p1956
(dp1957
S'TAGT'
p1958
F3.305
sS'TTCT'
p1959
F3.835
sS'TCAT'
p1960
F6.0
sS'TCCT'
p1961
F4.18
sS'TACT'
p1962
F3.9000000000000004
sS'TTGT'
p1963
F3.54
sS'TAAT'
p1964
F3.7800000000000002
sS'TTAT'
p1965
F3.7649999999999997
sS'TCGT'
p1966
F3.885
ssS'TAGC'
p1967
(dp1968
S'AAGG'
p1969
F3.3
sS'ACAG'
p1970
F2.4850000000000003
sS'AGGG'
p1971
F1.855
sS'AGAG'
p1972
F1.785
sS'AAAG'
p1973
F2.37
sS'AGTG'
p1974
F1.4100000000000001
sS'AATG'
p1975
F1.5450000000000002
sS'ACGG'
p1976
F1.955
sS'ACTG'
p1977
F1.6600000000000001
ssS'ACAT'
p1978
(dp1979
S'TAAA'
p1980
F3.74
sS'TCGA'
p1981
F3.425
sS'TTAA'
p1982
F3.7249999999999996
sS'TCAA'
p1983
F6.49
sS'TTCA'
p1984
F3.655
sS'TAGA'
p1985
F2.845
sS'TTGA'
p1986
F3.08
sS'TACA'
p1987
F3.72
sS'TCCA'
p1988
F4.0
ssS'TCAC'
p1989
(dp1990
S'AAGG'
p1991
F2.055
sS'ACAG'
p1992
F4.34
sS'AAAG'
p1993
F3.4
sS'ACCG'
p1994
F3.51
sS'AACG'
p1995
F3.4000000000000004
sS'ATAG'
p1996
F3.27
sS'ATCG'
p1997
F3.3200000000000003
sS'ACGG'
p1998
F2.415
sS'ATGG'
p1999
F2.225
ssS'CGGG'
p2000
(dp2001
S'GGTC'
p2002
F-0.16999999999999993
sS'GGAC'
p2003
F1.76
sS'GTAC'
p2004
F1.475
sS'GTGC'
p2005
F0.1050000000000002
sS'GTTC'
p2006
F-0.6049999999999998
sS'GAAC'
p2007
F1.52
sS'GGGC'
p2008
F2.81
sS'GAGC'
p2009
F1.8
sS'GATC'
p2010
F1.2400000000000002
ssS'CTAC'
p2011
(dp2012
S'GCCG'
p2013
F2.835
sS'GTCG'
p2014
F2.125
sS'GTAG'
p2015
F3.6799999999999997
sS'GGAG'
p2016
F1.4700000000000002
sS'GCAG'
p2017
F2.785
sS'GCGG'
p2018
F1.74
sS'GTGG'
p2019
F1.73
sS'GGGG'
p2020
F0.9249999999999999
sS'GGCG'
p2021
F1.42
ssS'AGAC'
p2022
(dp2023
S'TAAG'
p2024
F2.345
sS'TAGG'
p2025
F1.0
sS'TGGG'
p2026
F1.3250000000000002
sS'TTAG'
p2027
F2.915
sS'TTCG'
p2028
F2.715
sS'TGAG'
p2029
F3.5
sS'TGCG'
p2030
F2.02
sS'TTGG'
p2031
F2.2199999999999998
sS'TACG'
p2032
F2.3449999999999998
ssS'AGAA'
p2033
(dp2034
S'TAGT'
p2035
F2.43
sS'TGAT'
p2036
F4.67
sS'TGCT'
p2037
F2.7
sS'TTCT'
p2038
F3.495
sS'TACT'
p2039
F3.0250000000000004
sS'TGGT'
p2040
F2.755
sS'TTGT'
p2041
F3.1999999999999997
sS'TAAT'
p2042
F2.9050000000000002
sS'TTAT'
p2043
F3.175
ssS'ATTT'
p2044
(dp2045
S'TTTA'
p2046
F4.66
sS'TGGA'
p2047
F0.9849999999999999
sS'TGTA'
p2048
F2.3000000000000003
sS'TCGA'
p2049
F3.195
sS'TGCA'
p2050
F2.4250000000000003
sS'TTCA'
p2051
F3.215
sS'TTGA'
p2052
F2.825
sS'TCTA'
p2053
F3.26
sS'TCCA'
p2054
F3.6850000000000005
ssS'AGAG'
p2055
(dp2056
S'TAAC'
p2057
F2.375
sS'TAGC'
p2058
F1.765
sS'TTAC'
p2059
F2.395
sS'TGCC'
p2060
F2.23
sS'TTCC'
p2061
F2.875
sS'TGAC'
p2062
F3.52
sS'TTGC'
p2063
F1.835
sS'TACC'
p2064
F2.555
sS'TGGC'
p2065
F2.09
ssS'GGAG'
p2066
(dp2067
S'CGGC'
p2068
F1.1500000000000001
sS'CTAC'
p2069
F1.59
sS'CGAC'
p2070
F2.63
sS'CAAC'
p2071
F1.6050000000000002
sS'CACC'
p2072
F1.585
sS'CTGC'
p2073
F1.03
sS'CAGC'
p2074
F0.745
sS'CTCC'
p2075
F2.07
sS'CGCC'
p2076
F1.4400000000000002
ssS'GGGT'
p2077
(dp2078
S'CATA'
p2079
F1.4949999999999999
sS'CGGA'
p2080
F3.39
sS'CGAA'
p2081
F1.915
sS'CTAA'
p2082
F2.095
sS'CTTA'
p2083
F0.17999999999999972
sS'CAAA'
p2084
F1.4100000000000001
sS'CTGA'
p2085
F0.6600000000000001
sS'CAGA'
p2086
F1.3250000000000002
sS'CGTA'
p2087
F-0.09999999999999987
ssS'GAAA'
p2088
(dp2089
S'CACT'
p2090
F3.4
sS'CAAT'
p2091
F4.87
sS'CCCT'
p2092
F3.5700000000000003
sS'CGCT'
p2093
F2.4899999999999998
sS'CAGT'
p2094
F2.8049999999999997
sS'CCAT'
p2095
F3.4499999999999997
sS'CGAT'
p2096
F2.37
sS'CGGT'
p2097
F1.895
sS'CCGT'
p2098
F2.975
ssS'ATTG'
p2099
(dp2100
S'TTTC'
p2101
F3.77
sS'TGGC'
p2102
F-0.03499999999999992
sS'TGTC'
p2103
F1.645
sS'TCGC'
p2104
F2.1750000000000003
sS'TGCC'
p2105
F2.065
sS'TTCC'
p2106
F2.955
sS'TTGC'
p2107
F1.8050000000000002
sS'TCTC'
p2108
F2.605
sS'TCCC'
p2109
F3.425
ssS'ATTC'
p2110
(dp2111
S'TGGG'
p2112
F0.17999999999999994
sS'TTTG'
p2113
F3.61
sS'TGTG'
p2114
F1.73
sS'TCGG'
p2115
F2.39
sS'TTCG'
p2116
F2.855
sS'TGCG'
p2117
F2.065
sS'TCTG'
p2118
F2.8400000000000003
sS'TCCG'
p2119
F3.325
sS'TTGG'
p2120
F2.02
ssS'GGAT'
p2121
(dp2122
S'CGGA'
p2123
F1.505
sS'CGAA'
p2124
F4.27
sS'CTAA'
p2125
F2.33
sS'CAAA'
p2126
F1.895
sS'CACA'
p2127
F1.875
sS'CTGA'
p2128
F2.035
sS'CAGA'
p2129
F1.0
sS'CTCA'
p2130
F2.41
sS'CGCA'
p2131
F1.73
ssS'ATTA'
p2132
(dp2133
S'TTCT'
p2134
F3.33
sS'TGCT'
p2135
F2.5900000000000003
sS'TCCT'
p2136
F3.8
sS'TCTT'
p2137
F3.355
sS'TTGT'
p2138
F2.46
sS'TGGT'
p2139
F0.6199999999999997
sS'TTTT'
p2140
F4.84
sS'TCGT'
p2141
F2.83
sS'TGTT'
p2142
F2.445
ssS'AGAT'
p2143
(dp2144
S'TGGA'
p2145
F2.295
sS'TAAA'
p2146
F2.865
sS'TTAA'
p2147
F3.135
sS'TGCA'
p2148
F2.52
sS'TTCA'
p2149
F3.215
sS'TAGA'
p2150
F1.97
sS'TTGA'
p2151
F2.84
sS'TACA'
p2152
F2.845
sS'TGAA'
p2153
F5.16
ssS'TACG'
p2154
(dp2155
S'AGAC'
p2156
F3.085
sS'ACAC'
p2157
F3.835
sS'AACC'
p2158
F4.59
sS'AGCC'
p2159
F3.3099999999999996
sS'ACCC'
p2160
F3.7100000000000004
sS'AGTC'
p2161
F3.06
sS'AATC'
p2162
F3.3949999999999996
sS'AAAC'
p2163
F3.7199999999999998
sS'ACTC'
p2164
F3.51
ssS'ACCG'
p2165
(dp2166
S'TTTC'
p2167
F3.2700000000000005
sS'TAAC'
p2168
F3.6100000000000003
sS'TTAC'
p2169
F3.595
sS'TATC'
p2170
F3.2849999999999997
sS'TCAC'
p2171
F3.94
sS'TTCC'
p2172
F3.4699999999999998
sS'TACC'
p2173
F3.535
sS'TCTC'
p2174
F3.615
sS'TCCC'
p2175
F5.1
ssS'TGAT'
p2176
(dp2177
S'AGAA'
p2178
F5.29
sS'ATGA'
p2179
F2.4749999999999996
sS'AGGA'
p2180
F2.68
sS'AAGA'
p2181
F2.43
sS'AGCA'
p2182
F2.9050000000000002
sS'ATAA'
p2183
F2.7700000000000005
sS'AACA'
p2184
F3.305
sS'AAAA'
p2185
F3.325
sS'ATCA'
p2186
F2.8499999999999996
ssS'TTTA'
p2187
(dp2188
S'ATCT'
p2189
F3.425
sS'ATTT'
p2190
F5.28
sS'ACGT'
p2191
F2.84
sS'ACTT'
p2192
F3.465
sS'AGGT'
p2193
F0.8
sS'ATGT'
p2194
F2.6550000000000002
sS'AGTT'
p2195
F2.625
sS'ACCT'
p2196
F3.91
sS'AGCT'
p2197
F2.77
ssS'TTTC'
p2198
(dp2199
S'AGGG'
p2200
F0.3600000000000003
sS'ATGG'
p2201
F2.2150000000000003
sS'ACCG'
p2202
F3.4350000000000005
sS'AGTG'
p2203
F1.9100000000000001
sS'AGCG'
p2204
F2.245
sS'ATTG'
p2205
F4.05
sS'ATCG'
p2206
F3.0
sS'ACGG'
p2207
F2.4
sS'ACTG'
p2208
F2.95
ssS'TTTG'
p2209
(dp2210
S'ATGC'
p2211
F2.0
sS'AGGC'
p2212
F0.14500000000000024
sS'AGCC'
p2213
F2.245
sS'ACCC'
p2214
F3.535
sS'AGTC'
p2215
F1.8250000000000002
sS'ACGC'
p2216
F2.185
sS'ATTC'
p2217
F4.21
sS'ATCC'
p2218
F3.0500000000000003
sS'ACTC'
p2219
F2.7150000000000003
ssS'CAAG'
p2220
(dp2221
S'GGAC'
p2222
F2.1300000000000003
sS'GCCC'
p2223
F3.3200000000000003
sS'GCGC'
p2224
F2.53
sS'GCAC'
p2225
F3.1900000000000004
sS'GAAC'
p2226
F4.11
sS'GGGC'
p2227
F1.52
sS'GAGC'
p2228
F2.1700000000000004
sS'GGCC'
p2229
F2.31
sS'GACC'
p2230
F2.96
ssS'CTTA'
p2231
(dp2232
S'GGGT'
p2233
F0.050000000000000044
sS'GGCT'
p2234
F2.02
sS'GTCT'
p2235
F2.6750000000000003
sS'GCTT'
p2236
F2.94
sS'GCCT'
p2237
F3.3850000000000002
sS'GTTT'
p2238
F4.7
sS'GGTT'
p2239
F1.875
sS'GTGT'
p2240
F2.005
sS'GCGT'
p2241
F2.215
ssS'GCAG'
p2242
(dp2243
S'CTAC'
p2244
F2.875
sS'CAAC'
p2245
F2.8
sS'CCGC'
p2246
F2.6
sS'CCCC'
p2247
F3.09
sS'CACC'
p2248
F2.93
sS'CTGC'
p2249
F2.565
sS'CAGC'
p2250
F1.89
sS'CTCC'
p2251
F3.0549999999999997
sS'CCAC'
p2252
F4.17
ssS'CAAC'
p2253
(dp2254
S'GCCG'
p2255
F3.16
sS'GGAG'
p2256
F1.9000000000000001
sS'GCAG'
p2257
F2.56
sS'GCGG'
p2258
F1.965
sS'GGGG'
p2259
F0.7550000000000001
sS'GAGG'
p2260
F1.6050000000000002
sS'GAAG'
p2261
F4.09
sS'GGCG'
p2262
F1.6999999999999997
sS'GACG'
p2263
F2.8
ssS'CAAA'
p2264
(dp2265
S'GAGT'
p2266
F2.835
sS'GGGT'
p2267
F2.185
sS'GAAT'
p2268
F5.26
sS'GACT'
p2269
F3.43
sS'GGCT'
p2270
F2.78
sS'GCCT'
p2271
F3.79
sS'GGAT'
p2272
F2.66
sS'GCAT'
p2273
F3.7199999999999998
sS'GCGT'
p2274
F3.195
ssS'TGAG'
p2275
(dp2276
S'AGAC'
p2277
F3.65
sS'ATGC'
p2278
F1.4700000000000002
sS'AAGC'
p2279
F2.225
sS'AGGC'
p2280
F2.475
sS'AACC'
p2281
F3.015
sS'AGCC'
p2282
F2.615
sS'ATAC'
p2283
F2.03
sS'AAAC'
p2284
F2.835
sS'ATCC'
p2285
F2.5100000000000002
ssS'TTTT'
p2286
(dp2287
S'ATGA'
p2288
F3.02
sS'AGGA'
p2289
F1.165
sS'AGCA'
p2290
F2.605
sS'ACCA'
p2291
F3.795
sS'AGTA'
p2292
F2.48
sS'ACGA'
p2293
F3.205
sS'ATTA'
p2294
F5.1
sS'ATCA'
p2295
F3.31
sS'ACTA'
p2296
F3.37
ssS'CTTC'
p2297
(dp2298
S'GCCG'
p2299
F2.91
sS'GCTG'
p2300
F2.4250000000000003
sS'GTCG'
p2301
F2.1999999999999997
sS'GGTG'
p2302
F1.1600000000000001
sS'GTTG'
p2303
F3.4699999999999998
sS'GCGG'
p2304
F1.775
sS'GTGG'
p2305
F1.565
sS'GGGG'
p2306
F-0.3899999999999997
sS'GGCG'
p2307
F1.495
ssS'TGAC'
p2308
(dp2309
S'AAGG'
p2310
F1.4600000000000002
sS'AGGG'
p2311
F1.71
sS'AGAG'
p2312
F3.63
sS'ATGG'
p2313
F1.855
sS'AACG'
p2314
F2.805
sS'AGCG'
p2315
F2.405
sS'ATAG'
p2316
F2.55
sS'ATCG'
p2317
F2.35
sS'AAAG'
p2318
F2.8049999999999997
ssS'GCAT'
p2319
(dp2320
S'CTAA'
p2321
F3.365
sS'CCGA'
p2322
F2.805
sS'CCAA'
p2323
F5.8100000000000005
sS'CCCA'
p2324
F3.38
sS'CACA'
p2325
F3.2199999999999998
sS'CAAA'
p2326
F3.29
sS'CAGA'
p2327
F2.3449999999999998
sS'CTCA'
p2328
F3.345
sS'CTGA'
p2329
F2.77
ssS'CAAT'
p2330
(dp2331
S'GGAA'
p2332
F2.62
sS'GCCA'
p2333
F3.6100000000000003
sS'GCGA'
p2334
F2.7350000000000003
sS'GCAA'
p2335
F3.6799999999999997
sS'GAAA'
p2336
F5.75
sS'GAGA'
p2337
F2.375
sS'GGGA'
p2338
F1.7249999999999999
sS'GACA'
p2339
F3.25
sS'GGCA'
p2340
F2.6
ssS'CTGT'
p2341
(dp2342
S'GGAA'
p2343
F1.605
sS'GTTA'
p2344
F1.645
sS'GGTA'
p2345
F0.09000000000000008
sS'GCTA'
p2346
F1.955
sS'GTGA'
p2347
F4.46
sS'GCGA'
p2348
F2.085
sS'GCAA'
p2349
F3.12
sS'GTAA'
p2350
F2.11
sS'GGGA'
p2351
F0.17000000000000015
ssS'GTCT'
p2352
(dp2353
S'CGAA'
p2354
F1.6400000000000001
sS'CTAA'
p2355
F2.965
sS'CTTA'
p2356
F2.8400000000000003
sS'CCCA'
p2357
F3.805
sS'CCAA'
p2358
F3.58
sS'CTCA'
p2359
F5.0600000000000005
sS'CCTA'
p2360
F3.5050000000000003
sS'CGCA'
p2361
F1.865
sS'CGTA'
p2362
F1.5650000000000002
ssS'TAGT'
p2363
(dp2364
S'ACGA'
p2365
F2.6950000000000003
sS'AGAA'
p2366
F2.73
sS'AGGA'
p2367
F2.645
sS'AAGA'
p2368
F5.1
sS'ACAA'
p2369
F3.43
sS'AGTA'
p2370
F2.315
sS'AAAA'
p2371
F3.315
sS'AATA'
p2372
F2.45
sS'ACTA'
p2373
F2.565
ssS'TCAT'
p2374
(dp2375
S'ACGA'
p2376
F3.385
sS'ATGA'
p2377
F3.195
sS'AAGA'
p2378
F3.0250000000000004
sS'ACAA'
p2379
F6.0
sS'ATAA'
p2380
F3.84
sS'AACA'
p2381
F3.9000000000000004
sS'ACCA'
p2382
F3.96
sS'AAAA'
p2383
F3.92
sS'ATCA'
p2384
F3.77
ssS'AATT'
p2385
(dp2386
S'TGGA'
p2387
F2.9
sS'TGTA'
p2388
F2.7649999999999997
sS'TCGA'
p2389
F3.2699999999999996
sS'TATA'
p2390
F5.1
sS'TGCA'
p2391
F3.49
sS'TAGA'
p2392
F3.135
sS'TACA'
p2393
F3.7249999999999996
sS'TCTA'
p2394
F3.335
sS'TCCA'
p2395
F3.76
ssS'CGTT'
p2396
(dp2397
S'GTTA'
p2398
F1.8050000000000002
sS'GGTA'
p2399
F4.17
sS'GTCA'
p2400
F2.13
sS'GTGA'
p2401
F1.1749999999999998
sS'GAGA'
p2402
F1.835
sS'GGGA'
p2403
F1.125
sS'GACA'
p2404
F2.875
sS'GGCA'
p2405
F2.215
sS'GATA'
p2406
F2.2
ssS'TATA'
p2407
(dp2408
S'ACGT'
p2409
F2.925
sS'AATT'
p2410
F5.34
sS'ACTT'
p2411
F3.55
sS'AGGT'
p2412
F2.675
sS'AAGT'
p2413
F2.8099999999999996
sS'AGTT'
p2414
F2.85
sS'ACCT'
p2415
F3.995
sS'AGCT'
p2416
F3.545
sS'AACT'
p2417
F3.88
ssS'CTAT'
p2418
(dp2419
S'GGAA'
p2420
F1.84
sS'GTAA'
p2421
F5.34
sS'GTCA'
p2422
F2.575
sS'GCCA'
p2423
F3.2849999999999997
sS'GTGA'
p2424
F1.75
sS'GCGA'
p2425
F2.71
sS'GCAA'
p2426
F3.3550000000000004
sS'GGGA'
p2427
F1.5450000000000002
sS'GGCA'
p2428
F1.92
ssS'TATC'
p2429
(dp2430
S'AAGG'
p2431
F2.37
sS'AGGG'
p2432
F2.235
sS'ACCG'
p2433
F3.5200000000000005
sS'AGTG'
p2434
F2.335
sS'AACG'
p2435
F3.4050000000000002
sS'AGCG'
p2436
F3.12
sS'AATG'
p2437
F4.109999999999999
sS'ACGG'
p2438
F2.485
sS'ACTG'
p2439
F3.035
ssS'AATC'
p2440
(dp2441
S'TGGG'
p2442
F2.095
sS'TATG'
p2443
F4.05
sS'TGTG'
p2444
F2.395
sS'TCGG'
p2445
F2.4650000000000003
sS'TAGG'
p2446
F2.33
sS'TGCG'
p2447
F3.18
sS'TCTG'
p2448
F2.965
sS'TCCG'
p2449
F3.4499999999999997
sS'TACG'
p2450
F3.365
ssS'AATA'
p2451
(dp2452
S'TAGT'
p2453
F2.7700000000000005
sS'TGCT'
p2454
F3.605
sS'TCCT'
p2455
F3.875
sS'TCTT'
p2456
F3.48
sS'TACT'
p2457
F3.84
sS'TGGT'
p2458
F2.535
sS'TATT'
p2459
F5.28
sS'TCGT'
p2460
F2.9050000000000002
sS'TGTT'
p2461
F2.91
ssS'CTGA'
p2462
(dp2463
S'GGGT'
p2464
F0.4550000000000003
sS'GTAT'
p2465
F2.05
sS'GTTT'
p2466
F1.8250000000000002
sS'GCTT'
p2467
F2.135
sS'GGAT'
p2468
F1.745
sS'GGTT'
p2469
F0.27
sS'GCAT'
p2470
F3.06
sS'GTGT'
p2471
F3.99
sS'GCGT'
p2472
F2.47
ssS'TGAA'
p2473
(dp2474
S'ATCT'
p2475
F3.13
sS'AAAT'
p2476
F3.365
sS'AGGT'
p2477
F3.14
sS'AAGT'
p2478
F2.89
sS'ATGT'
p2479
F2.835
sS'AGAT'
p2480
F4.8
sS'ATAT'
p2481
F2.8099999999999996
sS'AGCT'
p2482
F3.085
sS'AACT'
p2483
F3.485
ssS'CTGC'
p2484
(dp2485
S'GCTG'
p2486
F1.0500000000000003
sS'GGTG'
p2487
F-0.8149999999999995
sS'GGAG'
p2488
F0.9600000000000002
sS'GCAG'
p2489
F2.125
sS'GCGG'
p2490
F1.145
sS'GTGG'
p2491
F2.66
sS'GGGG'
p2492
F-0.6699999999999999
sS'GTTG'
p2493
F0.7400000000000002
sS'GTAG'
p2494
F2.315
ssS'CGTG'
p2495
(dp2496
S'GGTC'
p2497
F3.2800000000000002
sS'GTTC'
p2498
F1.35
sS'GTCC'
p2499
F1.77
sS'GTGC'
p2500
F0.15500000000000025
sS'GGGC'
p2501
F0.1050000000000002
sS'GAGC'
p2502
F0.8150000000000002
sS'GGCC'
p2503
F1.955
sS'GACC'
p2504
F2.615
sS'GATC'
p2505
F1.5450000000000002
ssS'CGTC'
p2506
(dp2507
S'GTCG'
p2508
F1.77
sS'GGTG'
p2509
F3.12
sS'GTTG'
p2510
F1.835
sS'GTGG'
p2511
F0.3700000000000001
sS'GGGG'
p2512
F0.3200000000000003
sS'GAGG'
p2513
F1.03
sS'GATG'
p2514
F2.5300000000000002
sS'GGCG'
p2515
F1.8050000000000002
sS'GACG'
p2516
F2.565
ssS'CTTG'
p2517
(dp2518
S'GGTC'
p2519
F1.0750000000000002
sS'GTTC'
p2520
F3.63
sS'GCCC'
p2521
F3.01
sS'GCTC'
p2522
F2.19
sS'GTCC'
p2523
F2.3
sS'GCGC'
p2524
F1.56
sS'GTGC'
p2525
F1.35
sS'GGGC'
p2526
F-0.6049999999999998
sS'GGCC'
p2527
F1.495
ssS'CGTA'
p2528
(dp2529
S'GAGT'
p2530
F1.4700000000000002
sS'GGGT'
p2531
F0.76
sS'GATT'
p2532
F2.2950000000000004
sS'GACT'
p2533
F2.9899999999999998
sS'GGCT'
p2534
F2.33
sS'GTCT'
p2535
F2.295
sS'GTTT'
p2536
F2.0
sS'GGTT'
p2537
F4.35
sS'GTGT'
p2538
F0.81
ssS'GTTA'
p2539
(dp2540
S'CTGT'
p2541
F2.49
sS'CCCT'
p2542
F3.575
sS'CGTT'
p2543
F1.5400000000000003
sS'CGCT'
p2544
F1.685
sS'CTCT'
p2545
F2.9099999999999997
sS'CCTT'
p2546
F3.13
sS'CGGT'
p2547
F-0.2849999999999999
sS'CTTT'
p2548
F4.39
sS'CCGT'
p2549
F2.605
ssS'GTTC'
p2550
(dp2551
S'CGGG'
p2552
F-0.7250000000000001
sS'CCGG'
p2553
F2.165
sS'CTTG'
p2554
F3.16
sS'CTGG'
p2555
F2.05
sS'CCCG'
p2556
F3.1
sS'CGCG'
p2557
F1.1600000000000001
sS'CGTG'
p2558
F0.8250000000000001
sS'CCTG'
p2559
F2.615
sS'CTCG'
p2560
F2.485
ssS'GTCG'
p2561
(dp2562
S'CTAC'
p2563
F2.4
sS'CGAC'
p2564
F1.2750000000000004
sS'CTTC'
p2565
F2.4250000000000003
sS'CCCC'
p2566
F3.29
sS'CCTC'
p2567
F3.0900000000000003
sS'CCAC'
p2568
F3.415
sS'CTCC'
p2569
F3.64
sS'CGCC'
p2570
F1.4500000000000002
sS'CGTC'
p2571
F1.0500000000000003
ssS'GTCA'
p2572
(dp2573
S'CCCT'
p2574
F3.7650000000000006
sS'CGTT'
p2575
F1.5750000000000002
sS'CGCT'
p2576
F1.7250000000000003
sS'CTCT'
p2577
F4.88
sS'CCAT'
p2578
F3.7
sS'CCTT'
p2579
F3.615
sS'CGAT'
p2580
F1.6600000000000001
sS'CTAT'
p2581
F3.035
sS'CTTT'
p2582
F2.95
ssS'GTTG'
p2583
(dp2584
S'CGGC'
p2585
F-0.94
sS'CCGC'
p2586
F1.9500000000000002
sS'CTTC'
p2587
F3.32
sS'CCCC'
p2588
F3.45
sS'CTGC'
p2589
F1.835
sS'CCTC'
p2590
F2.38
sS'CTCC'
p2591
F2.435
sS'CGCC'
p2592
F1.1600000000000001
sS'CGTC'
p2593
F0.7400000000000002
ssS'GTCC'
p2594
(dp2595
S'CTAG'
p2596
F2.5300000000000002
sS'CGAG'
p2597
F1.2550000000000003
sS'CTTG'
p2598
F2.615
sS'CCCG'
p2599
F3.185
sS'CGCG'
p2600
F1.245
sS'CGTG'
p2601
F1.3400000000000003
sS'CCTG'
p2602
F3.2800000000000002
sS'CCAG'
p2603
F3.1450000000000005
sS'CTCG'
p2604
F3.91
ssS'AACC'
p2605
(dp2606
S'TAAG'
p2607
F3.4099999999999997
sS'TATG'
p2608
F3.545
sS'TGTG'
p2609
F3.3100000000000005
sS'TGAG'
p2610
F2.925
sS'TGCG'
p2611
F3.215
sS'TCAG'
p2612
F3.495
sS'TCTG'
p2613
F3.58
sS'TCCG'
p2614
F3.485
sS'TACG'
p2615
F4.8
ssS'AACA'
p2616
(dp2617
S'TGAT'
p2618
F3.43
sS'TCAT'
p2619
F4.0
sS'TGCT'
p2620
F3.795
sS'TCCT'
p2621
F4.065
sS'TCTT'
p2622
F3.915
sS'TACT'
p2623
F5.77
sS'TAAT'
p2624
F3.965
sS'TATT'
p2625
F3.88
sS'TGTT'
p2626
F3.645
ssS'ACCA'
p2627
(dp2628
S'TTCT'
p2629
F3.9450000000000003
sS'TCAT'
p2630
F4.225
sS'TCCT'
p2631
F6.34
sS'TCTT'
p2632
F4.14
sS'TACT'
p2633
F3.96
sS'TAAT'
p2634
F3.895
sS'TTTT'
p2635
F3.795
sS'TATT'
p2636
F3.81
sS'TTAT'
p2637
F3.88
ssS'ACCC'
p2638
(dp2639
S'TAAG'
p2640
F3.3899999999999997
sS'TTTG'
p2641
F3.4600000000000004
sS'TTAG'
p2642
F3.325
sS'TATG'
p2643
F3.4749999999999996
sS'TTCG'
p2644
F3.365
sS'TCAG'
p2645
F3.67
sS'TCTG'
p2646
F3.805
sS'TCCG'
p2647
F5.37
sS'TACG'
p2648
F3.38
ssS'TCGG'
p2649
(dp2650
S'ATGC'
p2651
F2.33
sS'AAGC'
p2652
F2.41
sS'ATAC'
p2653
F2.9499999999999997
sS'ACGC'
p2654
F3.82
sS'AATC'
p2655
F2.2
sS'AAAC'
p2656
F2.78
sS'ATTC'
p2657
F2.02
sS'ACAC'
p2658
F3.1399999999999997
sS'ACTC'
p2659
F2.06
ssS'GGGG'
p2660
(dp2661
S'CGGC'
p2662
F2.09
sS'CATC'
p2663
F0.9249999999999999
sS'CTAC'
p2664
F1.69
sS'CGAC'
p2665
F1.26
sS'CAAC'
p2666
F0.7550000000000001
sS'CTTC'
p2667
F-0.3900000000000001
sS'CTGC'
p2668
F0.3200000000000003
sS'CAGC'
p2669
F1.0350000000000001
sS'CGTC'
p2670
F-0.6699999999999999
ssS'GGGC'
p2671
(dp2672
S'CTAG'
p2673
F1.7000000000000002
sS'CGAG'
p2674
F1.02
sS'CGGG'
p2675
F1.59
sS'CATG'
p2676
F0.5900000000000002
sS'CAAG'
p2677
F0.4650000000000001
sS'CTTG'
p2678
F-0.7250000000000001
sS'CTGG'
p2679
F-0.17999999999999972
sS'CGTG'
p2680
F-1.005
sS'CAGG'
p2681
F0.5349999999999999
ssS'GTTT'
p2682
(dp2683
S'CGGA'
p2684
F0.0800000000000003
sS'CTTA'
p2685
F4.21
sS'CCGA'
p2686
F2.9699999999999998
sS'CCCA'
p2687
F3.4600000000000004
sS'CTGA'
p2688
F2.855
sS'CTCA'
p2689
F2.7950000000000004
sS'CCTA'
p2690
F3.0349999999999997
sS'CGCA'
p2691
F1.5200000000000002
sS'CGTA'
p2692
F1.3950000000000002
ssS'GGGA'
p2693
(dp2694
S'CTGT'
p2695
F0.9450000000000001
sS'CGTT'
p2696
F0.08000000000000007
sS'CAGT'
p2697
F1.71
sS'CGAT'
p2698
F1.855
sS'CTAT'
p2699
F2.235
sS'CATT'
p2700
F1.6749999999999998
sS'CGGT'
p2701
F2.92
sS'CTTT'
p2702
F0.3600000000000001
sS'CAAT'
p2703
F1.35
ssS'CTTT'
p2704
(dp2705
S'GTTA'
p2706
F4.52
sS'GGTA'
p2707
F1.7300000000000002
sS'GTCA'
p2708
F2.56
sS'GCCA'
p2709
F3.2700000000000005
sS'GCTA'
p2710
F2.8449999999999998
sS'GTGA'
p2711
F2.37
sS'GCGA'
p2712
F2.58
sS'GGGA'
p2713
F0.41500000000000004
sS'GGCA'
p2714
F1.855
ssS'ACCT'
p2715
(dp2716
S'TTTA'
p2717
F3.6850000000000005
sS'TAAA'
p2718
F3.825
sS'TATA'
p2719
F3.6999999999999997
sS'TTAA'
p2720
F3.76
sS'TCAA'
p2721
F4.105
sS'TTCA'
p2722
F3.9850000000000003
sS'TACA'
p2723
F4.0
sS'TCTA'
p2724
F4.03
sS'TCCA'
p2725
F6.52
ssS'TGTT'
p2726
(dp2727
S'ATGA'
p2728
F1.83
sS'AGGA'
p2729
F1.75
sS'AAGA'
p2730
F3.1999999999999997
sS'AGCA'
p2731
F2.84
sS'AACA'
p2732
F3.54
sS'AGTA'
p2733
F4.47
sS'AATA'
p2734
F2.815
sS'ATTA'
p2735
F2.46
sS'ATCA'
p2736
F2.785
ssS'AACT'
p2737
(dp2738
S'TAAA'
p2739
F3.8449999999999998
sS'TGTA'
p2740
F3.535
sS'TATA'
p2741
F3.7699999999999996
sS'TCAA'
p2742
F3.93
sS'TGCA'
p2743
F3.835
sS'TGAA'
p2744
F3.3600000000000003
sS'TACA'
p2745
F5.95
sS'TCTA'
p2746
F3.8049999999999997
sS'TCCA'
p2747
F4.105
ssS'GGTC'
p2748
(dp2749
S'CGGG'
p2750
F-0.17999999999999972
sS'CATG'
p2751
F1.0150000000000001
sS'CTTG'
p2752
F2.05
sS'CACG'
p2753
F1.8
sS'CTGG'
p2754
F0.5850000000000002
sS'CGCG'
p2755
F1.355
sS'CGTG'
p2756
F2.4
sS'CAGG'
p2757
F1.415
sS'CTCG'
p2758
F1.9849999999999999
ssS'GGTA'
p2759
(dp2760
S'CTGT'
p2761
F1.0250000000000001
sS'CACT'
p2762
F2.225
sS'CGTT'
p2763
F3.63
sS'CGCT'
p2764
F1.83
sS'CTCT'
p2765
F2.5100000000000002
sS'CAGT'
p2766
F1.855
sS'CATT'
p2767
F1.5300000000000002
sS'CGGT'
p2768
F0.26
sS'CTTT'
p2769
F2.2150000000000003
ssS'GGTG'
p2770
(dp2771
S'CGGC'
p2772
F-0.3949999999999998
sS'CATC'
p2773
F1.73
sS'CTTC'
p2774
F1.565
sS'CACC'
p2775
F1.85
sS'CTGC'
p2776
F0.3700000000000001
sS'CAGC'
p2777
F1.2000000000000002
sS'CTCC'
p2778
F1.9849999999999999
sS'CGCC'
p2779
F1.655
sS'CGTC'
p2780
F2.56
ssS'AGCA'
p2781
(dp2782
S'TGAT'
p2783
F2.6950000000000003
sS'TTCT'
p2784
F3.355
sS'TGCT'
p2785
F5.01
sS'TACT'
p2786
F3.385
sS'TAAT'
p2787
F3.02
sS'TTTT'
p2788
F3.205
sS'TATT'
p2789
F3.2350000000000003
sS'TTAT'
p2790
F3.29
sS'TGTT'
p2791
F2.61
ssS'GTGT'
p2792
(dp2793
S'CGGA'
p2794
F-0.16500000000000004
sS'CGAA'
p2795
F1.2700000000000002
sS'CTAA'
p2796
F2.395
sS'CTTA'
p2797
F1.73
sS'CCGA'
p2798
F2.275
sS'CTGA'
p2799
F4.15
sS'CCAA'
p2800
F3.3100000000000005
sS'CCTA'
p2801
F2.245
sS'CGTA'
p2802
F-0.2450000000000001
ssS'AGCC'
p2803
(dp2804
S'TAAG'
p2805
F2.5149999999999997
sS'TTTG'
p2806
F2.9699999999999998
sS'TTAG'
p2807
F2.885
sS'TATG'
p2808
F2.9
sS'TGTG'
p2809
F2.275
sS'TTCG'
p2810
F2.875
sS'TGAG'
p2811
F2.19
sS'TGCG'
p2812
F4.04
sS'TACG'
p2813
F2.805
ssS'TTGT'
p2814
(dp2815
S'AGAA'
p2816
F2.355
sS'ATGA'
p2817
F5.04
sS'AGGA'
p2818
F0.92
sS'ACAA'
p2819
F3.645
sS'ATAA'
p2820
F2.91
sS'AGTA'
p2821
F0.8399999999999999
sS'ACGA'
p2822
F2.61
sS'ATTA'
p2823
F2.445
sS'ACTA'
p2824
F2.48
ssS'AGCG'
p2825
(dp2826
S'TTTC'
p2827
F2.58
sS'TAAC'
p2828
F2.7350000000000003
sS'TGTC'
p2829
F2.085
sS'TTAC'
p2830
F2.5050000000000003
sS'TATC'
p2831
F2.71
sS'TGCC'
p2832
F3.77
sS'TTCC'
p2833
F2.83
sS'TGAC'
p2834
F2.4099999999999997
sS'TACC'
p2835
F2.96
ssS'GAGG'
p2836
(dp2837
S'CGGC'
p2838
F1.4700000000000002
sS'CATC'
p2839
F1.4700000000000002
sS'CGAC'
p2840
F1.3399999999999999
sS'CAAC'
p2841
F1.9000000000000001
sS'CCGC'
p2842
F1.9
sS'CGTC'
p2843
F0.9600000000000002
sS'CCTC'
p2844
F1.5899999999999999
sS'CAGC'
p2845
F3.18
sS'CCAC'
p2846
F1.7200000000000002
ssS'GAGA'
p2847
(dp2848
S'CCGT'
p2849
F2.5749999999999997
sS'CGTT'
p2850
F1.71
sS'CAGT'
p2851
F4.01
sS'CCTT'
p2852
F2.34
sS'CCAT'
p2853
F2.865
sS'CGAT'
p2854
F1.785
sS'CATT'
p2855
F2.22
sS'CGGT'
p2856
F2.145
sS'CAAT'
p2857
F2.6950000000000003
ssS'GAGC'
p2858
(dp2859
S'CGAG'
p2860
F0.9
sS'CGGG'
p2861
F1.02
sS'CATG'
p2862
F1.1350000000000002
sS'CAAG'
p2863
F1.81
sS'CCGG'
p2864
F1.4
sS'CAGG'
p2865
F2.68
sS'CGTG'
p2866
F0.6250000000000002
sS'CCTG'
p2867
F1.2550000000000003
sS'CCAG'
p2868
F1.98
ssS'TTGA'
p2869
(dp2870
S'ATTT'
p2871
F2.625
sS'ACGT'
p2872
F2.995
sS'ACTT'
p2873
F2.66
sS'AGGT'
p2874
F1.205
sS'ACAT'
p2875
F3.585
sS'ATGT'
p2876
F4.57
sS'AGAT'
p2877
F2.495
sS'AGTT'
p2878
F1.02
sS'ATAT'
p2879
F2.85
ssS'TTGC'
p2880
(dp2881
S'ACAG'
p2882
F2.6999999999999997
sS'AGGG'
p2883
F0.08000000000000007
sS'AGAG'
p2884
F1.71
sS'ATGG'
p2885
F3.24
sS'AGTG'
p2886
F-0.06499999999999972
sS'ATAG'
p2887
F1.965
sS'ATTG'
p2888
F1.5400000000000003
sS'ACGG'
p2889
F1.87
sS'ACTG'
p2890
F1.5750000000000002
ssS'AGCT'
p2891
(dp2892
S'TTTA'
p2893
F3.195
sS'TAAA'
p2894
F2.95
sS'TGTA'
p2895
F2.5
sS'TATA'
p2896
F3.125
sS'TTAA'
p2897
F3.2699999999999996
sS'TGCA'
p2898
F5.1899999999999995
sS'TTCA'
p2899
F3.495
sS'TGAA'
p2900
F2.625
sS'TACA'
p2901
F3.425
ssS'TTGG'
p2902
(dp2903
S'AGAC'
p2904
F1.9500000000000002
sS'ATGC'
p2905
F3.74
sS'ACAC'
p2906
F2.99
sS'AGGC'
p2907
F0.5800000000000001
sS'ATAC'
p2908
F2.2550000000000003
sS'AGTC'
p2909
F0.27
sS'ACGC'
p2910
F2.37
sS'ATTC'
p2911
F1.875
sS'ACTC'
p2912
F1.9100000000000001
ssS'ATGC'
p2913
(dp2914
S'TGGG'
p2915
F-0.09999999999999987
sS'TTTG'
p2916
F1.3950000000000002
sS'TTAG'
p2917
F1.87
sS'TGTG'
p2918
F-0.24499999999999988
sS'TCGG'
p2919
F1.7599999999999998
sS'TGAG'
p2920
F1.5299999999999998
sS'TCAG'
p2921
F2.59
sS'TCTG'
p2922
F1.5650000000000002
sS'TTGG'
p2923
F2.8
ssS'ATGA'
p2924
(dp2925
S'TGAT'
p2926
F2.315
sS'TCAT'
p2927
F3.475
sS'TCTT'
p2928
F2.65
sS'TTGT'
p2929
F4.13
sS'TGGT'
p2930
F1.0250000000000001
sS'TTTT'
p2931
F2.48
sS'TTAT'
p2932
F2.705
sS'TCGT'
p2933
F2.885
sS'TGTT'
p2934
F0.8399999999999999
ssS'ATGG'
p2935
(dp2936
S'TTTC'
p2937
F1.7300000000000002
sS'TGGC'
p2938
F0.40000000000000013
sS'TGTC'
p2939
F0.09000000000000008
sS'TCGC'
p2940
F2.26
sS'TTAC'
p2941
F2.16
sS'TCAC'
p2942
F2.88
sS'TGAC'
p2943
F1.77
sS'TTGC'
p2944
F3.3
sS'TCTC'
p2945
F1.9
ssS'TGCT'
p2946
(dp2947
S'AGAA'
p2948
F3.01
sS'AGCA'
p2949
F5.32
sS'ATAA'
p2950
F2.9050000000000002
sS'AACA'
p2951
F3.885
sS'AGTA'
p2952
F2.885
sS'AAAA'
p2953
F3.41
sS'AATA'
p2954
F3.585
sS'ATTA'
p2955
F2.83
sS'ATCA'
p2956
F3.13
ssS'ACTA'
p2957
(dp2958
S'TAGT'
p2959
F2.8499999999999996
sS'TTCT'
p2960
F3.755
sS'TCCT'
p2961
F4.1
sS'TCTT'
p2962
F5.85
sS'TACT'
p2963
F3.77
sS'TTGT'
p2964
F2.785
sS'TTTT'
p2965
F3.31
sS'TATT'
p2966
F3.3750000000000004
sS'TCGT'
p2967
F3.13
ssS'GCGC'
p2968
(dp2969
S'CTAG'
p2970
F2.2350000000000003
sS'CATG'
p2971
F1.085
sS'CAAG'
p2972
F1.86
sS'CTTG'
p2973
F1.1600000000000001
sS'CCGG'
p2974
F3.13
sS'CTGG'
p2975
F1.355
sS'CAGG'
p2976
F1.28
sS'CCTG'
p2977
F1.245
sS'CCAG'
p2978
F2.3200000000000003
ssS'GCAA'
p2979
(dp2980
S'CTGT'
p2981
F3.23
sS'CACT'
p2982
F3.4000000000000004
sS'CAAT'
p2983
F3.33
sS'CCCT'
p2984
F3.5600000000000005
sS'CTCT'
p2985
F3.5250000000000004
sS'CAGT'
p2986
F2.805
sS'CCAT'
p2987
F5.32
sS'CTAT'
p2988
F3.4050000000000002
sS'CCGT'
p2989
F3.2649999999999997
ssS'GCGA'
p2990
(dp2991
S'CTGT'
p2992
F2.5300000000000002
sS'CCGT'
p2993
F4.46
sS'CAGT'
p2994
F2.405
sS'CCTT'
p2995
F2.33
sS'CCAT'
p2996
F3.1550000000000002
sS'CTAT'
p2997
F3.12
sS'CATT'
p2998
F2.17
sS'CTTT'
p2999
F2.245
sS'CAAT'
p3000
F2.6950000000000003
ssS'GCGG'
p3001
(dp3002
S'CATC'
p3003
F1.42
sS'CTAC'
p3004
F2.525
sS'CAAC'
p3005
F1.6999999999999997
sS'CCGC'
p3006
F3.63
sS'CTTC'
p3007
F1.495
sS'CTGC'
p3008
F1.8050000000000002
sS'CCTC'
p3009
F1.58
sS'CAGC'
p3010
F1.78
sS'CCAC'
p3011
F1.91
ssS'CCCC'
p3012
(dp3013
S'GCCG'
p3014
F4.77
sS'GCTG'
p3015
F3.29
sS'GTCG'
p3016
F3.105
sS'GTAG'
p3017
F3.0650000000000004
sS'GTTG'
p3018
F3.45
sS'GCAG'
p3019
F3.505
sS'GAAG'
p3020
F3.1500000000000004
sS'GATG'
p3021
F3.185
sS'GACG'
p3022
F3.09
ssS'TGCC'
p3023
(dp3024
S'AGAG'
p3025
F2.5749999999999997
sS'AGTG'
p3026
F2.6599999999999997
sS'AACG'
p3027
F3.2649999999999997
sS'AGCG'
p3028
F4.17
sS'ATAG'
p3029
F2.52
sS'ATTG'
p3030
F2.605
sS'ATCG'
p3031
F2.5100000000000002
sS'AATG'
p3032
F3.3600000000000003
sS'AAAG'
p3033
F2.975
ssS'CCCA'
p3034
(dp3035
S'GAAT'
p3036
F3.6050000000000004
sS'GATT'
p3037
F3.5200000000000005
sS'GACT'
p3038
F3.67
sS'GTCT'
p3039
F3.6849999999999996
sS'GCTT'
p3040
F3.625
sS'GCCT'
p3041
F5.74
sS'GTTT'
p3042
F3.535
sS'GTAT'
p3043
F3.62
sS'GCAT'
p3044
F3.7100000000000004
ssS'TGCA'
p3045
(dp3046
S'ATCT'
p3047
F2.99
sS'ATTT'
p3048
F2.84
sS'AAAT'
p3049
F3.48
sS'AATT'
p3050
F3.695
sS'AGAT'
p3051
F3.08
sS'AGTT'
p3052
F2.995
sS'ATAT'
p3053
F2.925
sS'AGCT'
p3054
F5.140000000000001
sS'AACT'
p3055
F3.845
ssS'CACA'
p3056
(dp3057
S'GAAT'
p3058
F3.475
sS'GATT'
p3059
F3.39
sS'GACT'
p3060
F5.6
sS'GGCT'
p3061
F3.1399999999999997
sS'GCTT'
p3062
F3.75
sS'GCCT'
p3063
F3.9000000000000004
sS'GGAT'
p3064
F2.775
sS'GGTT'
p3065
F2.99
sS'GCAT'
p3066
F3.835
ssS'GCAC'
p3067
(dp3068
S'CTAG'
p3069
F2.845
sS'CAAG'
p3070
F2.72
sS'CCGG'
p3071
F1.835
sS'CACG'
p3072
F2.77
sS'CTGG'
p3073
F1.8
sS'CCCG'
p3074
F2.93
sS'CAGG'
p3075
F1.375
sS'CCAG'
p3076
F4.15
sS'CTCG'
p3077
F2.8449999999999998
ssS'CACC'
p3078
(dp3079
S'GCCG'
p3080
F3.3200000000000003
sS'GCTG'
p3081
F3.415
sS'GGTG'
p3082
F2.6550000000000002
sS'GGAG'
p3083
F1.7200000000000002
sS'GCAG'
p3084
F2.83
sS'GAAG'
p3085
F2.92
sS'GATG'
p3086
F3.0549999999999997
sS'GGCG'
p3087
F1.91
sS'GACG'
p3088
F4.63
ssS'TCCG'
p3089
(dp3090
S'ACAC'
p3091
F3.9000000000000004
sS'AACC'
p3092
F3.7150000000000003
sS'ATAC'
p3093
F3.71
sS'ACCC'
p3094
F4.609999999999999
sS'AATC'
p3095
F3.465
sS'AAAC'
p3096
F3.79
sS'ATTC'
p3097
F3.3850000000000002
sS'ATCC'
p3098
F3.585
sS'ACTC'
p3099
F3.575
ssS'TACA'
p3100
(dp3101
S'AAAT'
p3102
F4.005
sS'AATT'
p3103
F3.92
sS'ACTT'
p3104
F4.035
sS'ACAT'
p3105
F4.12
sS'AGAT'
p3106
F3.37
sS'AGTT'
p3107
F3.585
sS'ACCT'
p3108
F4.1850000000000005
sS'AGCT'
p3109
F3.7350000000000003
sS'AACT'
p3110
F5.83
ssS'TACC'
p3111
(dp3112
S'ACAG'
p3113
F3.565
sS'AGAG'
p3114
F2.865
sS'ACCG'
p3115
F3.6050000000000004
sS'AGTG'
p3116
F3.25
sS'AACG'
p3117
F4.859999999999999
sS'AGCG'
p3118
F3.1550000000000002
sS'AATG'
p3119
F3.585
sS'AAAG'
p3120
F3.4499999999999997
sS'ACTG'
p3121
F3.7
ssS'GCGT'
p3122
(dp3123
S'CATA'
p3124
F1.9900000000000002
sS'CTAA'
p3125
F3.18
sS'CTTA'
p3126
F2.065
sS'CCGA'
p3127
F4.93
sS'CCAA'
p3128
F3.215
sS'CAAA'
p3129
F2.755
sS'CAGA'
p3130
F2.02
sS'CCTA'
p3131
F2.15
sS'CTGA'
p3132
F2.145
ssS'CATA'
p3133
(dp3134
S'GAGT'
p3135
F2.03
sS'GGGT'
p3136
F2.1300000000000003
sS'GATT'
p3137
F5.109999999999999
sS'GACT'
p3138
F3.35
sS'GGCT'
p3139
F2.9499999999999997
sS'GCTT'
p3140
F3.265
sS'GCCT'
p3141
F3.71
sS'GGTT'
p3142
F2.2550000000000003
sS'GCGT'
p3143
F2.14
ssS'CATC'
p3144
(dp3145
S'GCCG'
p3146
F3.2350000000000003
sS'GCTG'
p3147
F2.4
sS'GGTG'
p3148
F2.49
sS'GCGG'
p3149
F1.6999999999999997
sS'GGGG'
p3150
F1.69
sS'GAGG'
p3151
F1.59
sS'GATG'
p3152
F3.88
sS'GGCG'
p3153
F2.525
sS'GACG'
p3154
F2.875
ssS'CATG'
p3155
(dp3156
S'GGTC'
p3157
F1.5050000000000001
sS'GCCC'
p3158
F3.3350000000000004
sS'GCTC'
p3159
F2.515
sS'GCGC'
p3160
F1.4849999999999999
sS'GGGC'
p3161
F1.475
sS'GAGC'
p3162
F1.375
sS'GGCC'
p3163
F2.575
sS'GACC'
p3164
F2.975
sS'GATC'
p3165
F4.04
ssS'TCCT'
p3166
(dp3167
S'ACAA'
p3168
F4.065
sS'ATAA'
p3169
F3.875
sS'AACA'
p3170
F4.18
sS'ACCA'
p3171
F6.029999999999999
sS'AAAA'
p3172
F4.005000000000001
sS'AATA'
p3173
F3.88
sS'ATTA'
p3174
F3.8
sS'ATCA'
p3175
F4.1
sS'ACTA'
p3176
F3.99
ssS'CGCT'
p3177
(dp3178
S'GGAA'
p3179
F2.335
sS'GTTA'
p3180
F2.1750000000000003
sS'GGTA'
p3181
F2.26
sS'GTCA'
p3182
F2.475
sS'GAAA'
p3183
F2.745
sS'GTAA'
p3184
F2.25
sS'GACA'
p3185
F3.2199999999999998
sS'GGCA'
p3186
F5.02
sS'GATA'
p3187
F2.92
ssS'CCTT'
p3188
(dp3189
S'GTTA'
p3190
F2.955
sS'GTCA'
p3191
F3.38
sS'GCCA'
p3192
F3.4699999999999998
sS'GCTA'
p3193
F5.07
sS'GTGA'
p3194
F2.79
sS'GCGA'
p3195
F2.83
sS'GAGA'
p3196
F2.875
sS'GACA'
p3197
F3.365
sS'GATA'
p3198
F2.94
ssS'CATT'
p3199
(dp3200
S'GGTA'
p3201
F2.16
sS'GCCA'
p3202
F3.595
sS'GCTA'
p3203
F3.17
sS'GCGA'
p3204
F2.5050000000000003
sS'GAGA'
p3205
F2.395
sS'GGGA'
p3206
F2.495
sS'GACA'
p3207
F3.235
sS'GGCA'
p3208
F2.835
sS'GATA'
p3209
F4.93
ssS'GCTG'
p3210
(dp3211
S'CATC'
p3212
F2.125
sS'CCGC'
p3213
F1.855
sS'CTTC'
p3214
F2.1999999999999997
sS'CCCC'
p3215
F3.105
sS'CACC'
p3216
F2.945
sS'CTGC'
p3217
F1.77
sS'CCTC'
p3218
F4.1
sS'CAGC'
p3219
F1.695
sS'CTCC'
p3220
F3.02
ssS'CGCG'
p3221
(dp3222
S'GGTC'
p3223
F1.845
sS'GGAC'
p3224
F2.17
sS'GTAC'
p3225
F1.4849999999999999
sS'GTCC'
p3226
F1.81
sS'GTTC'
p3227
F1.56
sS'GAAC'
p3228
F2.53
sS'GGCC'
p3229
F3.6
sS'GACC'
p3230
F2.755
sS'GATC'
p3231
F2.5050000000000003
ssS'GAGT'
p3232
(dp3233
S'CATA'
p3234
F2.04
sS'CGGA'
p3235
F1.76
sS'CGAA'
p3236
F1.8450000000000002
sS'CCGA'
p3237
F2.19
sS'CCAA'
p3238
F2.925
sS'CAAA'
p3239
F2.755
sS'CAGA'
p3240
F4.48
sS'CCTA'
p3241
F2.16
sS'CGTA'
p3242
F1.5299999999999998
ssS'CGCC'
p3243
(dp3244
S'GTCG'
p3245
F1.855
sS'GGTG'
p3246
F2.335
sS'GGAG'
p3247
F1.9
sS'GAAG'
p3248
F2.6100000000000003
sS'GTTG'
p3249
F1.9500000000000002
sS'GATG'
p3250
F2.6950000000000003
sS'GGCG'
p3251
F3.87
sS'GACG'
p3252
F2.6
sS'GTAG'
p3253
F1.8650000000000002
ssS'TCCC'
p3254
(dp3255
S'ACAG'
p3256
F3.63
sS'ACCG'
p3257
F4.88
sS'AACG'
p3258
F3.5600000000000005
sS'ATAG'
p3259
F3.44
sS'ATTG'
p3260
F3.575
sS'ATCG'
p3261
F3.4800000000000004
sS'AATG'
p3262
F3.6550000000000002
sS'AAAG'
p3263
F3.5700000000000003
sS'ACTG'
p3264
F3.7650000000000006
ssS'CGCA'
p3265
(dp3266
S'GTAT'
p3267
F2.27
sS'GAAT'
p3268
F2.815
sS'GATT'
p3269
F3.0300000000000002
sS'GACT'
p3270
F3.1799999999999997
sS'GGCT'
p3271
F4.84
sS'GTCT'
p3272
F2.335
sS'GGAT'
p3273
F2.455
sS'GGTT'
p3274
F2.37
sS'GTTT'
p3275
F2.185
ssS'TCCA'
p3276
(dp3277
S'ATCT'
p3278
F4.0600000000000005
sS'ATTT'
p3279
F3.91
sS'AAAT'
p3280
F4.074999999999999
sS'AATT'
p3281
F3.9899999999999998
sS'ACTT'
p3282
F4.1
sS'ACAT'
p3283
F4.1850000000000005
sS'ACCT'
p3284
F5.85
sS'ATAT'
p3285
F3.995
sS'AACT'
p3286
F4.140000000000001
sstp3287
.